ccopy_reg
_reconstructor
p0
(cwntr.network.WaterNetworkModel
WaterNetworkModel
p1
c__builtin__
object
p2
Ntp3
Rp4
(dp5
S'_num_tanks'
p6
I3
sS'_reservoirs'
p7
(dp8
S'River'
p9
g0
(cwntr.network.WaterNetworkModel
Reservoir
p10
g2
Ntp11
Rp12
(dp13
S'base_head'
p14
F67.056
sS'head'
p15
F67.056
sS'head_pattern_name'
p16
NsS'prev_head'
p17
NsS'leak_demand'
p18
NsS'_name'
p19
g9
sS'prev_leak_demand'
p20
NsS'prev_demand'
p21
NsS'demand'
p22
NsbsS'Lake'
p23
g0
(g10
g2
Ntp24
Rp25
(dp26
g14
F50.9016
sg15
F50.9016
sg16
Nsg17
Nsg18
Nsg19
g23
sg20
Nsg21
Nsg22
NsbssS'prev_sim_time'
p27
F-inf
sS'_valves'
p28
(dp29
sS'_nodes'
p30
(dp31
S'217'
p32
g0
(cwntr.network.WaterNetworkModel
Junction
p33
g2
Ntp34
Rp35
(dp36
S'prev_expected_demand'
p37
Nsg15
NsS'demand_pattern_name'
p38
NsS'elevation'
p39
F1.8288000000000002
sS'_leak'
p40
I00
sg17
Nsg18
Nsg19
g32
sS'leak_discharge_coeff'
p41
F0.0
sS'expected_demand'
p42
F0.001528044556808
sS'leak_area'
p43
F0.0
sg20
Nsg21
NsS'leak_status'
p44
I00
sS'_leak_start_control_name'
p45
S'junction217start_leak_control'
p46
sg22
NsS'nominal_pressure'
p47
I15
sS'base_demand'
p48
F0.001528044556808
sS'minimum_pressure'
p49
F0.0
sS'_leak_end_control_name'
p50
S'junction217end_leak_control'
p51
sbsS'215'
p52
g0
(g33
g2
Ntp53
Rp54
(dp55
g37
Nsg15
Nsg38
Nsg39
F2.1336
sg40
I00
sg17
Nsg18
Nsg19
g52
sg41
F0.0
sg42
F0.005816285206116
sg43
F0.0
sg20
Nsg21
Nsg44
I00
sg45
S'junction215start_leak_control'
p56
sg22
Nsg47
I15
sg48
F0.005816285206116
sg49
F0.0
sg50
S'junction215end_leak_control'
p57
sbsS'213'
p58
g0
(g33
g2
Ntp59
Rp60
(dp61
g37
Nsg15
Nsg38
Nsg39
F2.1336
sg40
I00
sg17
Nsg18
Nsg19
g58
sg41
F0.0
sg42
F0.000879477337816
sg43
F0.0
sg20
Nsg21
Nsg44
I00
sg45
S'junction213start_leak_control'
p62
sg22
Nsg47
I15
sg48
F0.000879477337816
sg49
F0.0
sg50
S'junction213end_leak_control'
p63
sbsS'211'
p64
g0
(g33
g2
Ntp65
Rp66
(dp67
g37
Nsg15
Nsg38
Nsg39
F2.1336
sg40
I00
sg17
Nsg18
Nsg19
g64
sg41
F0.0
sg42
F0.000546992002788
sg43
F0.0
sg20
Nsg21
Nsg44
I00
sg45
S'junction211start_leak_control'
p68
sg22
Nsg47
I15
sg48
F0.000546992002788
sg49
F0.0
sg50
S'junction211end_leak_control'
p69
sbsS'219'
p70
g0
(g33
g2
Ntp71
Rp72
(dp73
g37
Nsg15
Nsg38
Nsg39
F1.2192
sg40
I00
sg17
Nsg18
Nsg19
g70
sg41
F0.0
sg42
F0.0026068869152480003
sg43
F0.0
sg20
Nsg21
Nsg44
I00
sg45
S'junction219start_leak_control'
p74
sg22
Nsg47
I15
sg48
F0.0026068869152480003
sg49
F0.0
sg50
S'junction219end_leak_control'
p75
sbsS'131'
p76
g0
(g33
g2
Ntp77
Rp78
(dp79
g37
Nsg15
Nsg38
Nsg39
F1.8288000000000002
sg40
I00
sg17
Nsg18
Nsg19
g76
sg41
F0.0
sg42
F0.0026971058961
sg43
F0.0
sg20
Nsg21
Nsg44
I00
sg45
S'junction131start_leak_control'
p80
sg22
Nsg47
I15
sg48
F0.0026971058961
sg49
F0.0
sg50
S'junction131end_leak_control'
p81
sbsS'139'
p82
g0
(g33
g2
Ntp83
Rp84
(dp85
g37
Nsg15
Nsg38
Nsg39
F9.4488
sg40
I00
sg17
Nsg18
Nsg19
g82
sg41
F0.0
sg42
F0.000371601256796
sg43
F0.0
sg20
Nsg21
Nsg44
I00
sg45
S'junction139start_leak_control'
p86
sg22
Nsg47
I15
sg48
F0.000371601256796
sg49
F0.0
sg50
S'junction139end_leak_control'
p87
sbsS'166'
p88
g0
(g33
g2
Ntp89
Rp90
(dp91
g37
Nsg15
Nsg38
Nsg39
F-0.6096
sg40
I00
sg17
Nsg18
Nsg19
g88
sg41
F0.0
sg42
F0.00016403451064
sg43
F0.0
sg20
Nsg21
Nsg44
I00
sg45
S'junction166start_leak_control'
p92
sg22
Nsg47
I15
sg48
F0.00016403451064
sg49
F0.0
sg50
S'junction166end_leak_control'
p93
sbsS'20'
p94
g0
(g33
g2
Ntp95
Rp96
(dp97
g37
Nsg15
Nsg38
Nsg39
F39.3192
sg40
I00
sg17
Nsg18
Nsg19
g94
sg41
F0.0
sg42
F0.0
sg43
F0.0
sg20
Nsg21
Nsg44
I00
sg45
S'junction20start_leak_control'
p98
sg22
Nsg47
I15
sg48
F0.0
sg49
F0.0
sg50
S'junction20end_leak_control'
p99
sbsS'120'
p100
g0
(g33
g2
Ntp101
Rp102
(dp103
g37
Nsg15
Nsg38
Nsg39
F0.0
sg40
I00
sg17
Nsg18
Nsg19
g100
sg41
F0.0
sg42
F0.0
sg43
F0.0
sg20
Nsg21
Nsg44
I00
sg45
S'junction120start_leak_control'
p104
sg22
Nsg47
I15
sg48
F0.0
sg49
F0.0
sg50
S'junction120end_leak_control'
p105
sbsS'121'
p106
g0
(g33
g2
Ntp107
Rp108
(dp109
g37
Nsg15
Nsg38
Nsg39
F-0.6096
sg40
I00
sg17
Nsg18
Nsg19
g106
sg41
F0.0
sg42
F0.002626444876132
sg43
F0.0
sg20
Nsg21
Nsg44
I00
sg45
S'junction121start_leak_control'
p110
sg22
Nsg47
I15
sg48
F0.002626444876132
sg49
F0.0
sg50
S'junction121end_leak_control'
p111
sbsS'261'
p112
g0
(g33
g2
Ntp113
Rp114
(dp115
g37
Nsg15
Nsg38
Nsg39
F0.0
sg40
I00
sg17
Nsg18
Nsg19
g112
sg41
F0.0
sg42
F0.0
sg43
F0.0
sg20
Nsg21
Nsg44
I00
sg45
S'junction261start_leak_control'
p116
sg22
Nsg47
I15
sg48
F0.0
sg49
F0.0
sg50
S'junction261end_leak_control'
p117
sbsS'123'
p118
g0
(g33
g2
Ntp119
Rp120
(dp121
g37
Nsg15
Nsg38
S'2'
p122
sg39
F3.3528000000000002
sg40
I00
sg17
Nsg18
Nsg19
g118
sg41
F0.0
sg42
F6.30901964e-05
sg43
F0.0
sg20
Nsg21
Nsg44
I00
sg45
S'junction123start_leak_control'
p123
sg22
Nsg47
I15
sg48
F6.30901964e-05
sg49
F0.0
sg50
S'junction123end_leak_control'
p124
sbsS'267'
p125
g0
(g33
g2
Ntp126
Rp127
(dp128
g37
Nsg15
Nsg38
Nsg39
F6.4008
sg40
I00
sg17
Nsg18
Nsg19
g125
sg41
F0.0
sg42
F0.0
sg43
F0.0
sg20
Nsg21
Nsg44
I00
sg45
S'junction267start_leak_control'
p129
sg22
Nsg47
I15
sg48
F0.0
sg49
F0.0
sg50
S'junction267end_leak_control'
p130
sbsS'125'
p131
g0
(g33
g2
Ntp132
Rp133
(dp134
g37
Nsg15
Nsg38
Nsg39
F3.3528000000000002
sg40
I00
sg17
Nsg18
Nsg19
g131
sg41
F0.0
sg42
F0.00287691295584
sg43
F0.0
sg20
Nsg21
Nsg44
I00
sg45
S'junction125start_leak_control'
p135
sg22
Nsg47
I15
sg48
F0.00287691295584
sg49
F0.0
sg50
S'junction125end_leak_control'
p136
sbsS'265'
p137
g0
(g33
g2
Ntp138
Rp139
(dp140
g37
Nsg15
Nsg38
Nsg39
F0.0
sg40
I00
sg17
Nsg18
Nsg19
g137
sg41
F0.0
sg42
F0.0
sg43
F0.0
sg20
Nsg21
Nsg44
I00
sg45
S'junction265start_leak_control'
p141
sg22
Nsg47
I15
sg48
F0.0
sg49
F0.0
sg50
S'junction265end_leak_control'
p142
sbsS'127'
p143
g0
(g33
g2
Ntp144
Rp145
(dp146
g37
Nsg15
Nsg38
Nsg39
F17.0688
sg40
I00
sg17
Nsg18
Nsg19
g143
sg41
F0.0
sg42
F0.001114172868424
sg43
F0.0
sg20
Nsg21
Nsg44
I00
sg45
S'junction127start_leak_control'
p147
sg22
Nsg47
I15
sg48
F0.001114172868424
sg49
F0.0
sg50
S'junction127end_leak_control'
p148
sbsS'129'
p149
g0
(g33
g2
Ntp150
Rp151
(dp152
g37
Nsg15
Nsg38
Nsg39
F15.5448
sg40
I00
sg17
Nsg18
Nsg19
g149
sg41
F0.0
sg42
F0.0
sg43
F0.0
sg20
Nsg21
Nsg44
I00
sg45
S'junction129start_leak_control'
p153
sg22
Nsg47
I15
sg48
F0.0
sg49
F0.0
sg50
S'junction129end_leak_control'
p154
sbsS'269'
p155
g0
(g33
g2
Ntp156
Rp157
(dp158
g37
Nsg15
Nsg38
Nsg39
F0.0
sg40
I00
sg17
Nsg18
Nsg19
g155
sg41
F0.0
sg42
F0.0
sg43
F0.0
sg20
Nsg21
Nsg44
I00
sg45
S'junction269start_leak_control'
p159
sg22
Nsg47
I15
sg48
F0.0
sg49
F0.0
sg50
S'junction269end_leak_control'
p160
sbsg9
g12
sS'50'
p161
g0
(g33
g2
Ntp162
Rp163
(dp164
g37
Nsg15
Nsg38
Nsg39
F35.5092
sg40
I00
sg17
Nsg18
Nsg19
g161
sg41
F0.0
sg42
F0.0
sg43
F0.0
sg20
Nsg21
Nsg44
I00
sg45
S'junction50start_leak_control'
p165
sg22
Nsg47
I15
sg48
F0.0
sg49
F0.0
sg50
S'junction50end_leak_control'
p166
sbsS'199'
p167
g0
(g33
g2
Ntp168
Rp169
(dp170
g37
Nsg15
Nsg38
Nsg39
F-0.6096
sg40
I00
sg17
Nsg18
Nsg19
g167
sg41
F0.0
sg42
F0.007527922234448
sg43
F0.0
sg20
Nsg21
Nsg44
I00
sg45
S'junction199start_leak_control'
p171
sg22
Nsg47
I15
sg48
F0.007527922234448
sg49
F0.0
sg50
S'junction199end_leak_control'
p172
sbsS'195'
p173
g0
(g33
g2
Ntp174
Rp175
(dp176
g37
Nsg15
Nsg38
Nsg39
F4.7244
sg40
I00
sg17
Nsg18
Nsg19
g173
sg41
F0.0
sg42
F0.0
sg43
F0.0
sg20
Nsg21
Nsg44
I00
sg45
S'junction195start_leak_control'
p177
sg22
Nsg47
I15
sg48
F0.0
sg49
F0.0
sg50
S'junction195end_leak_control'
p178
sbsS'197'
p179
g0
(g33
g2
Ntp180
Rp181
(dp182
g37
Nsg15
Nsg38
Nsg39
F7.010400000000001
sg40
I00
sg17
Nsg18
Nsg19
g179
sg41
F0.0
sg42
F0.001075056946656
sg43
F0.0
sg20
Nsg21
Nsg44
I00
sg45
S'junction197start_leak_control'
p183
sg22
Nsg47
I15
sg48
F0.001075056946656
sg49
F0.0
sg50
S'junction197end_leak_control'
p184
sbsS'191'
p185
g0
(g33
g2
Ntp186
Rp187
(dp188
g37
Nsg15
Nsg38
Nsg39
F7.62
sg40
I00
sg17
Nsg18
Nsg19
g185
sg41
F0.0
sg42
F0.0051670870851600005
sg43
F0.0
sg20
Nsg21
Nsg44
I00
sg45
S'junction191start_leak_control'
p189
sg22
Nsg47
I15
sg48
F0.0051670870851600005
sg49
F0.0
sg50
S'junction191end_leak_control'
p190
sbsS'193'
p191
g0
(g33
g2
Ntp192
Rp193
(dp194
g37
Nsg15
Nsg38
Nsg39
F5.486400000000001
sg40
I00
sg17
Nsg18
Nsg19
g191
sg41
F0.0
sg42
F0.004498961905284001
sg43
F0.0
sg20
Nsg21
Nsg44
I00
sg45
S'junction193start_leak_control'
p195
sg22
Nsg47
I15
sg48
F0.004498961905284001
sg49
F0.0
sg50
S'junction193end_leak_control'
p196
sbsS'115'
p197
g0
(g33
g2
Ntp198
Rp199
(dp200
g37
Nsg15
Nsg38
Nsg39
F4.2672
sg40
I00
sg17
Nsg18
Nsg19
g197
sg41
F0.0
sg42
F0.00328699923244
sg43
F0.0
sg20
Nsg21
Nsg44
I00
sg45
S'junction115start_leak_control'
p201
sg22
Nsg47
I15
sg48
F0.00328699923244
sg49
F0.0
sg50
S'junction115end_leak_control'
p202
sbsS'271'
p203
g0
(g33
g2
Ntp204
Rp205
(dp206
g37
Nsg15
Nsg38
Nsg39
F1.8288000000000002
sg40
I00
sg17
Nsg18
Nsg19
g203
sg41
F0.0
sg42
F0.0
sg43
F0.0
sg20
Nsg21
Nsg44
I00
sg45
S'junction271start_leak_control'
p207
sg22
Nsg47
I15
sg48
F0.0
sg49
F0.0
sg50
S'junction271end_leak_control'
p208
sbsS'117'
p209
g0
(g33
g2
Ntp210
Rp211
(dp212
g37
Nsg15
Nsg38
Nsg39
F4.1452800000000005
sg40
I00
sg17
Nsg18
Nsg19
g209
sg41
F0.0
sg42
F0.007426347018244
sg43
F0.0
sg20
Nsg21
Nsg44
I00
sg45
S'junction117start_leak_control'
p213
sg22
Nsg47
I15
sg48
F0.007426347018244
sg49
F0.0
sg50
S'junction117end_leak_control'
p214
sbsS'273'
p215
g0
(g33
g2
Ntp216
Rp217
(dp218
g37
Nsg15
Nsg38
Nsg39
F2.4384
sg40
I00
sg17
Nsg18
Nsg19
g215
sg41
F0.0
sg42
F0.0
sg43
F0.0
sg20
Nsg21
Nsg44
I00
sg45
S'junction273start_leak_control'
p219
sg22
Nsg47
I15
sg48
F0.0
sg49
F0.0
sg50
S'junction273end_leak_control'
p220
sbsS'111'
p221
g0
(g33
g2
Ntp222
Rp223
(dp224
g37
Nsg15
Nsg38
Nsg39
F3.048
sg40
I00
sg17
Nsg18
Nsg19
g221
sg41
F0.0
sg42
F0.008955022477016
sg43
F0.0
sg20
Nsg21
Nsg44
I00
sg45
S'junction111start_leak_control'
p225
sg22
Nsg47
I15
sg48
F0.008955022477016
sg49
F0.0
sg50
S'junction111end_leak_control'
p226
sbsS'275'
p227
g0
(g33
g2
Ntp228
Rp229
(dp230
g37
Nsg15
Nsg38
Nsg39
F3.048
sg40
I00
sg17
Nsg18
Nsg19
g227
sg41
F0.0
sg42
F0.0
sg43
F0.0
sg20
Nsg21
Nsg44
I00
sg45
S'junction275start_leak_control'
p231
sg22
Nsg47
I15
sg48
F0.0
sg49
F0.0
sg50
S'junction275end_leak_control'
p232
sbsS'113'
p233
g0
(g33
g2
Ntp234
Rp235
(dp236
g37
Nsg15
Nsg38
Nsg39
F0.6096
sg40
I00
sg17
Nsg18
Nsg19
g233
sg41
F0.0
sg42
F0.001262434829964
sg43
F0.0
sg20
Nsg21
Nsg44
I00
sg45
S'junction113start_leak_control'
p237
sg22
Nsg47
I15
sg48
F0.001262434829964
sg49
F0.0
sg50
S'junction113end_leak_control'
p238
sbsS'119'
p239
g0
(g33
g2
Ntp240
Rp241
(dp242
g37
Nsg15
Nsg38
Nsg39
F0.6096
sg40
I00
sg17
Nsg18
Nsg19
g239
sg41
F0.0
sg42
F0.011112076291932
sg43
F0.0
sg20
Nsg21
Nsg44
I00
sg45
S'junction119start_leak_control'
p243
sg22
Nsg47
I15
sg48
F0.011112076291932
sg49
F0.0
sg50
S'junction119end_leak_control'
p244
sbsS'143'
p245
g0
(g33
g2
Ntp246
Rp247
(dp248
g37
Nsg15
Nsg38
Nsg39
F-1.3716000000000002
sg40
I00
sg17
Nsg18
Nsg19
g245
sg41
F0.0
sg42
F0.00039115921768000003
sg43
F0.0
sg20
Nsg21
Nsg44
I00
sg45
S'junction143start_leak_control'
p249
sg22
Nsg47
I15
sg48
F0.00039115921768000003
sg49
F0.0
sg50
S'junction143end_leak_control'
p250
sbsS'141'
p251
g0
(g33
g2
Ntp252
Rp253
(dp254
g37
Nsg15
Nsg38
Nsg39
F1.2192
sg40
I00
sg17
Nsg18
Nsg19
g251
sg41
F0.0
sg42
F0.00062143843454
sg43
F0.0
sg20
Nsg21
Nsg44
I00
sg45
S'junction141start_leak_control'
p255
sg22
Nsg47
I15
sg48
F0.00062143843454
sg49
F0.0
sg50
S'junction141end_leak_control'
p256
sbsS'3'
p257
g0
(cwntr.network.WaterNetworkModel
Tank
p258
g2
Ntp259
Rp260
(dp261
S'diameter'
p262
F49.9872
sg15
F48.1584
sg39
F39.3192
sS'vol_curve'
p263
Nsg40
I00
sS'max_level'
p264
F10.820400000000001
sg17
NsS'init_level'
p265
F8.8392
sS'min_vol'
p266
F0.0
sg18
Nsg19
g257
sg41
F0.0
sg45
S'tank3start_leak_control'
p267
sg43
F0.0
sg20
Nsg21
Nsg44
I00
sg22
NsS'bulk_rxn_coeff'
p268
NsS'min_level'
p269
F1.2192
sg50
S'tank3end_leak_control'
p270
sbsS'247'
p271
g0
(g33
g2
Ntp272
Rp273
(dp274
g37
Nsg15
Nsg38
Nsg39
F5.486400000000001
sg40
I00
sg17
Nsg18
Nsg19
g271
sg41
F0.0
sg42
F0.004440288022632
sg43
F0.0
sg20
Nsg21
Nsg44
I00
sg45
S'junction247start_leak_control'
p275
sg22
Nsg47
I15
sg48
F0.004440288022632
sg49
F0.0
sg50
S'junction247end_leak_control'
p276
sbsS'109'
p277
g0
(g33
g2
Ntp278
Rp279
(dp280
g37
Nsg15
Nsg38
Nsg39
F6.1874400000000005
sg40
I00
sg17
Nsg18
Nsg19
g277
sg41
F0.0
sg42
F0.014599071446960002
sg43
F0.0
sg20
Nsg21
Nsg44
I00
sg45
S'junction109start_leak_control'
p281
sg22
Nsg47
I15
sg48
F0.014599071446960002
sg49
F0.0
sg50
S'junction109end_leak_control'
p282
sbsS'241'
p283
g0
(g33
g2
Ntp284
Rp285
(dp286
g37
Nsg15
Nsg38
Nsg39
F3.9624
sg40
I00
sg17
Nsg18
Nsg19
g283
sg41
F0.0
sg42
F0.0
sg43
F0.0
sg20
Nsg21
Nsg44
I00
sg45
S'junction241start_leak_control'
p287
sg22
Nsg47
I15
sg48
F0.0
sg49
F0.0
sg50
S'junction241end_leak_control'
p288
sbsS'243'
p289
g0
(g33
g2
Ntp290
Rp291
(dp292
g37
Nsg15
Nsg38
Nsg39
F4.2672
sg40
I00
sg17
Nsg18
Nsg19
g289
sg41
F0.0
sg42
F0.000273811452376
sg43
F0.0
sg20
Nsg21
Nsg44
I00
sg45
S'junction243start_leak_control'
p293
sg22
Nsg47
I15
sg48
F0.000273811452376
sg49
F0.0
sg50
S'junction243end_leak_control'
p294
sbsS'103'
p295
g0
(g33
g2
Ntp296
Rp297
(dp298
g37
Nsg15
Nsg38
Nsg39
F13.1064
sg40
I00
sg17
Nsg18
Nsg19
g295
sg41
F0.0
sg42
F0.00840361416048
sg43
F0.0
sg20
Nsg21
Nsg44
I00
sg45
S'junction103start_leak_control'
p299
sg22
Nsg47
I15
sg48
F0.00840361416048
sg49
F0.0
sg50
S'junction103end_leak_control'
p300
sbsS'101'
p301
g0
(g33
g2
Ntp302
Rp303
(dp304
g37
Nsg15
Nsg38
Nsg39
F12.8016
sg40
I00
sg17
Nsg18
Nsg19
g301
sg41
F0.0
sg42
F0.01198398280618
sg43
F0.0
sg20
Nsg21
Nsg44
I00
sg45
S'junction101start_leak_control'
p305
sg22
Nsg47
I15
sg48
F0.01198398280618
sg49
F0.0
sg50
S'junction101end_leak_control'
p306
sbsS'249'
p307
g0
(g33
g2
Ntp308
Rp309
(dp310
g37
Nsg15
Nsg38
Nsg39
F5.486400000000001
sg40
I00
sg17
Nsg18
Nsg19
g307
sg41
F0.0
sg42
F0.0
sg43
F0.0
sg20
Nsg21
Nsg44
I00
sg45
S'junction249start_leak_control'
p311
sg22
Nsg47
I15
sg48
F0.0
sg49
F0.0
sg50
S'junction249end_leak_control'
p312
sbsS'107'
p313
g0
(g33
g2
Ntp314
Rp315
(dp316
g37
Nsg15
Nsg38
Nsg39
F6.7056000000000004
sg40
I00
sg17
Nsg18
Nsg19
g313
sg41
F0.0
sg42
F0.003447248331296
sg43
F0.0
sg20
Nsg21
Nsg44
I00
sg45
S'junction107start_leak_control'
p317
sg22
Nsg47
I15
sg48
F0.003447248331296
sg49
F0.0
sg50
S'junction107end_leak_control'
p318
sbsS'105'
p319
g0
(g33
g2
Ntp320
Rp321
(dp322
g37
Nsg15
Nsg38
Nsg39
F8.6868
sg40
I00
sg17
Nsg18
Nsg19
g319
sg41
F0.0
sg42
F0.008540519886668001
sg43
F0.0
sg20
Nsg21
Nsg44
I00
sg45
S'junction105start_leak_control'
p323
sg22
Nsg47
I15
sg48
F0.008540519886668001
sg49
F0.0
sg50
S'junction105end_leak_control'
p324
sbsS'35'
p325
g0
(g33
g2
Ntp326
Rp327
(dp328
g37
Nsg15
Nsg38
S'4'
p329
sg39
F3.81
sg40
I00
sg17
Nsg18
Nsg19
g325
sg41
F0.0
sg42
F6.30901964e-05
sg43
F0.0
sg20
Nsg21
Nsg44
I00
sg45
S'junction35start_leak_control'
p330
sg22
Nsg47
I15
sg48
F6.30901964e-05
sg49
F0.0
sg50
S'junction35end_leak_control'
p331
sbsS'60'
p332
g0
(g33
g2
Ntp333
Rp334
(dp335
g37
Nsg15
Nsg38
Nsg39
F0.0
sg40
I00
sg17
Nsg18
Nsg19
g332
sg41
F0.0
sg42
F0.0
sg43
F0.0
sg20
Nsg21
Nsg44
I00
sg45
S'junction60start_leak_control'
p336
sg22
Nsg47
I15
sg48
F0.0
sg49
F0.0
sg50
S'junction60end_leak_control'
p337
sbsS'61'
p338
g0
(g33
g2
Ntp339
Rp340
(dp341
g37
Nsg15
Nsg38
Nsg39
F0.0
sg40
I00
sg17
Nsg18
Nsg19
g338
sg41
F0.0
sg42
F0.0
sg43
F0.0
sg20
Nsg21
Nsg44
I00
sg45
S'junction61start_leak_control'
p342
sg22
Nsg47
I15
sg48
F0.0
sg49
F0.0
sg50
S'junction61end_leak_control'
p343
sbsS'259'
p344
g0
(g33
g2
Ntp345
Rp346
(dp347
g37
Nsg15
Nsg38
Nsg39
F7.62
sg40
I00
sg17
Nsg18
Nsg19
g344
sg41
F0.0
sg42
F0.0
sg43
F0.0
sg20
Nsg21
Nsg44
I00
sg45
S'junction259start_leak_control'
p348
sg22
Nsg47
I15
sg48
F0.0
sg49
F0.0
sg50
S'junction259end_leak_control'
p349
sbsS'179'
p350
g0
(g33
g2
Ntp351
Rp352
(dp353
g37
Nsg15
Nsg38
Nsg39
F2.4384
sg40
I00
sg17
Nsg18
Nsg19
g350
sg41
F0.0
sg42
F0.0
sg43
F0.0
sg20
Nsg21
Nsg44
I00
sg45
S'junction179start_leak_control'
p354
sg22
Nsg47
I15
sg48
F0.0
sg49
F0.0
sg50
S'junction179end_leak_control'
p355
sbsS'177'
p356
g0
(g33
g2
Ntp357
Rp358
(dp359
g37
Nsg15
Nsg38
Nsg39
F2.4384
sg40
I00
sg17
Nsg18
Nsg19
g356
sg41
F0.0
sg42
F0.003669956724588
sg43
F0.0
sg20
Nsg21
Nsg44
I00
sg45
S'junction177start_leak_control'
p360
sg22
Nsg47
I15
sg48
F0.003669956724588
sg49
F0.0
sg50
S'junction177end_leak_control'
p361
sbsS'253'
p362
g0
(g33
g2
Ntp363
Rp364
(dp365
g37
Nsg15
Nsg38
Nsg39
F10.972800000000001
sg40
I00
sg17
Nsg18
Nsg19
g362
sg41
F0.0
sg42
F0.003439677507728
sg43
F0.0
sg20
Nsg21
Nsg44
I00
sg45
S'junction253start_leak_control'
p366
sg22
Nsg47
I15
sg48
F0.003439677507728
sg49
F0.0
sg50
S'junction253end_leak_control'
p367
sbsS'251'
p368
g0
(g33
g2
Ntp369
Rp370
(dp371
g37
Nsg15
Nsg38
Nsg39
F9.144
sg40
I00
sg17
Nsg18
Nsg19
g368
sg41
F0.0
sg42
F0.001524259145024
sg43
F0.0
sg20
Nsg21
Nsg44
I00
sg45
S'junction251start_leak_control'
p372
sg22
Nsg47
I15
sg48
F0.001524259145024
sg49
F0.0
sg50
S'junction251end_leak_control'
p373
sbsS'173'
p374
g0
(g33
g2
Ntp375
Rp376
(dp377
g37
Nsg15
Nsg38
Nsg39
F-1.2192
sg40
I00
sg17
Nsg18
Nsg19
g374
sg41
F0.0
sg42
F0.0
sg43
F0.0
sg20
Nsg21
Nsg44
I00
sg45
S'junction173start_leak_control'
p378
sg22
Nsg47
I15
sg48
F0.0
sg49
F0.0
sg50
S'junction173end_leak_control'
p379
sbsS'257'
p380
g0
(g33
g2
Ntp381
Rp382
(dp383
g37
Nsg15
Nsg38
Nsg39
F5.1816
sg40
I00
sg17
Nsg18
Nsg19
g380
sg41
F0.0
sg42
F0.0
sg43
F0.0
sg20
Nsg21
Nsg44
I00
sg45
S'junction257start_leak_control'
p384
sg22
Nsg47
I15
sg48
F0.0
sg49
F0.0
sg50
S'junction257end_leak_control'
p385
sbsS'171'
p386
g0
(g33
g2
Ntp387
Rp388
(dp389
g37
Nsg15
Nsg38
Nsg39
F-1.2192
sg40
I00
sg17
Nsg18
Nsg19
g386
sg41
F0.0
sg42
F0.002481968326376
sg43
F0.0
sg20
Nsg21
Nsg44
I00
sg45
S'junction171start_leak_control'
p390
sg22
Nsg47
I15
sg48
F0.002481968326376
sg49
F0.0
sg50
S'junction171end_leak_control'
p391
sbsS'255'
p392
g0
(g33
g2
Ntp393
Rp394
(dp395
g37
Nsg15
Nsg38
Nsg39
F8.2296
sg40
I00
sg17
Nsg18
Nsg19
g392
sg41
F0.0
sg42
F0.0025482130325960002
sg43
F0.0
sg20
Nsg21
Nsg44
I00
sg45
S'junction255start_leak_control'
p396
sg22
Nsg47
I15
sg48
F0.0025482130325960002
sg49
F0.0
sg50
S'junction255end_leak_control'
p397
sbsS'183'
p398
g0
(g33
g2
Ntp399
Rp400
(dp401
g37
Nsg15
Nsg38
Nsg39
F3.3528000000000002
sg40
I00
sg17
Nsg18
Nsg19
g398
sg41
F0.0
sg42
F0.0
sg43
F0.0
sg20
Nsg21
Nsg44
I00
sg45
S'junction183start_leak_control'
p402
sg22
Nsg47
I15
sg48
F0.0
sg49
F0.0
sg50
S'junction183end_leak_control'
p403
sbsS'181'
p404
g0
(g33
g2
Ntp405
Rp406
(dp407
g37
Nsg15
Nsg38
Nsg39
F2.4384
sg40
I00
sg17
Nsg18
Nsg19
g404
sg41
F0.0
sg42
F0.0
sg43
F0.0
sg20
Nsg21
Nsg44
I00
sg45
S'junction181start_leak_control'
p408
sg22
Nsg47
I15
sg48
F0.0
sg49
F0.0
sg50
S'junction181end_leak_control'
p409
sbsS'187'
p410
g0
(g33
g2
Ntp411
Rp412
(dp413
g37
Nsg15
Nsg38
Nsg39
F3.81
sg40
I00
sg17
Nsg18
Nsg19
g410
sg41
F0.0
sg42
F0.0
sg43
F0.0
sg20
Nsg21
Nsg44
I00
sg45
S'junction187start_leak_control'
p414
sg22
Nsg47
I15
sg48
F0.0
sg49
F0.0
sg50
S'junction187end_leak_control'
p415
sbsS'184'
p416
g0
(g33
g2
Ntp417
Rp418
(dp419
g37
Nsg15
Nsg38
Nsg39
F4.8768
sg40
I00
sg17
Nsg18
Nsg19
g416
sg41
F0.0
sg42
F0.0
sg43
F0.0
sg20
Nsg21
Nsg44
I00
sg45
S'junction184start_leak_control'
p420
sg22
Nsg47
I15
sg48
F0.0
sg49
F0.0
sg50
S'junction184end_leak_control'
p421
sbsS'185'
p422
g0
(g33
g2
Ntp423
Rp424
(dp425
g37
Nsg15
Nsg38
Nsg39
F4.8768
sg40
I00
sg17
Nsg18
Nsg19
g422
sg41
F0.0
sg42
F0.00161826353766
sg43
F0.0
sg20
Nsg21
Nsg44
I00
sg45
S'junction185start_leak_control'
p426
sg22
Nsg47
I15
sg48
F0.00161826353766
sg49
F0.0
sg50
S'junction185end_leak_control'
p427
sbsS'189'
p428
g0
(g33
g2
Ntp429
Rp430
(dp431
g37
Nsg15
Nsg38
Nsg39
F1.2192
sg40
I00
sg17
Nsg18
Nsg19
g428
sg41
F0.0
sg42
F0.006808693995488
sg43
F0.0
sg20
Nsg21
Nsg44
I00
sg45
S'junction189start_leak_control'
p432
sg22
Nsg47
I15
sg48
F0.006808693995488
sg49
F0.0
sg50
S'junction189end_leak_control'
p433
sbsS'169'
p434
g0
(g33
g2
Ntp435
Rp436
(dp437
g37
Nsg15
Nsg38
Nsg39
F-1.524
sg40
I00
sg17
Nsg18
Nsg19
g434
sg41
F0.0
sg42
F0.0
sg43
F0.0
sg20
Nsg21
Nsg44
I00
sg45
S'junction169start_leak_control'
p438
sg22
Nsg47
I15
sg48
F0.0
sg49
F0.0
sg50
S'junction169end_leak_control'
p439
sbsS'229'
p440
g0
(g33
g2
Ntp441
Rp442
(dp443
g37
Nsg15
Nsg38
Nsg39
F3.2004
sg40
I00
sg17
Nsg18
Nsg19
g440
sg41
F0.0
sg42
F0.004049128804952001
sg43
F0.0
sg20
Nsg21
Nsg44
I00
sg45
S'junction229start_leak_control'
p444
sg22
Nsg47
I15
sg48
F0.004049128804952001
sg49
F0.0
sg50
S'junction229end_leak_control'
p445
sbsS'164'
p446
g0
(g33
g2
Ntp447
Rp448
(dp449
g37
Nsg15
Nsg38
Nsg39
F1.524
sg40
I00
sg17
Nsg18
Nsg19
g446
sg41
F0.0
sg42
F0.0
sg43
F0.0
sg20
Nsg21
Nsg44
I00
sg45
S'junction164start_leak_control'
p450
sg22
Nsg47
I15
sg48
F0.0
sg49
F0.0
sg50
S'junction164end_leak_control'
p451
sbsS'225'
p452
g0
(g33
g2
Ntp453
Rp454
(dp455
g37
Nsg15
Nsg38
Nsg39
F2.4384
sg40
I00
sg17
Nsg18
Nsg19
g452
sg41
F0.0
sg42
F0.00143845647792
sg43
F0.0
sg20
Nsg21
Nsg44
I00
sg45
S'junction225start_leak_control'
p456
sg22
Nsg47
I15
sg48
F0.00143845647792
sg49
F0.0
sg50
S'junction225end_leak_control'
p457
sbsS'167'
p458
g0
(g33
g2
Ntp459
Rp460
(dp461
g37
Nsg15
Nsg38
Nsg39
F-1.524
sg40
I00
sg17
Nsg18
Nsg19
g458
sg41
F0.0
sg42
F0.0009185932595840001
sg43
F0.0
sg20
Nsg21
Nsg44
I00
sg45
S'junction167start_leak_control'
p462
sg22
Nsg47
I15
sg48
F0.0009185932595840001
sg49
F0.0
sg50
S'junction167end_leak_control'
p463
sbsS'161'
p464
g0
(g33
g2
Ntp465
Rp466
(dp467
g37
Nsg15
Nsg38
Nsg39
F1.2192
sg40
I00
sg17
Nsg18
Nsg19
g464
sg41
F0.0
sg42
F0.0009968251031200002
sg43
F0.0
sg20
Nsg21
Nsg44
I00
sg45
S'junction161start_leak_control'
p468
sg22
Nsg47
I15
sg48
F0.0009968251031200002
sg49
F0.0
sg50
S'junction161end_leak_control'
p469
sbsS'163'
p470
g0
(g33
g2
Ntp471
Rp472
(dp473
g37
Nsg15
Nsg38
Nsg39
F1.524
sg40
I00
sg17
Nsg18
Nsg19
g470
sg41
F0.0
sg42
F0.000594309650088
sg43
F0.0
sg20
Nsg21
Nsg44
I00
sg45
S'junction163start_leak_control'
p474
sg22
Nsg47
I15
sg48
F0.000594309650088
sg49
F0.0
sg50
S'junction163end_leak_control'
p475
sbsS'10'
p476
g0
(g33
g2
Ntp477
Rp478
(dp479
g37
Nsg15
Nsg38
Nsg39
F44.805600000000005
sg40
I00
sg17
Nsg18
Nsg19
g476
sg41
F0.0
sg42
F0.0
sg43
F0.0
sg20
Nsg21
Nsg44
I00
sg45
S'junction10start_leak_control'
p480
sg22
Nsg47
I15
sg48
F0.0
sg49
F0.0
sg50
S'junction10end_leak_control'
p481
sbsS'15'
p482
g0
(g33
g2
Ntp483
Rp484
(dp485
g37
Nsg15
Nsg38
g257
sg39
F9.7536
sg40
I00
sg17
Nsg18
Nsg19
g482
sg41
F0.0
sg42
F6.30901964e-05
sg43
F0.0
sg20
Nsg21
Nsg44
I00
sg45
S'junction15start_leak_control'
p486
sg22
Nsg47
I15
sg48
F6.30901964e-05
sg49
F0.0
sg50
S'junction15end_leak_control'
p487
sbsS'151'
p488
g0
(g33
g2
Ntp489
Rp490
(dp491
g37
Nsg15
Nsg38
Nsg39
F10.2108
sg40
I00
sg17
Nsg18
Nsg19
g488
sg41
F0.0
sg42
F0.009115271575872
sg43
F0.0
sg20
Nsg21
Nsg44
I00
sg45
S'junction151start_leak_control'
p492
sg22
Nsg47
I15
sg48
F0.009115271575872
sg49
F0.0
sg50
S'junction151end_leak_control'
p493
sbsS'153'
p494
g0
(g33
g2
Ntp495
Rp496
(dp497
g37
Nsg15
Nsg38
Nsg39
F20.177760000000003
sg40
I00
sg17
Nsg18
Nsg19
g494
sg41
F0.0
sg42
F0.0027866939749880003
sg43
F0.0
sg20
Nsg21
Nsg44
I00
sg45
S'junction153start_leak_control'
p498
sg22
Nsg47
I15
sg48
F0.0027866939749880003
sg49
F0.0
sg50
S'junction153end_leak_control'
p499
sbsS'601'
p500
g0
(g33
g2
Ntp501
Rp502
(dp503
g37
Nsg15
Nsg38
Nsg39
F0.0
sg40
I00
sg17
Nsg18
Nsg19
g500
sg41
F0.0
sg42
F0.0
sg43
F0.0
sg20
Nsg21
Nsg44
I00
sg45
S'junction601start_leak_control'
p504
sg22
Nsg47
I15
sg48
F0.0
sg49
F0.0
sg50
S'junction601end_leak_control'
p505
sbsS'157'
p506
g0
(g33
g2
Ntp507
Rp508
(dp509
g37
Nsg15
Nsg38
Nsg39
F3.99288
sg40
I00
sg17
Nsg18
Nsg19
g506
sg41
F0.0
sg42
F0.003267441271556
sg43
F0.0
sg20
Nsg21
Nsg44
I00
sg45
S'junction157start_leak_control'
p510
sg22
Nsg47
I15
sg48
F0.003267441271556
sg49
F0.0
sg50
S'junction157end_leak_control'
p511
sbsS'159'
p512
g0
(g33
g2
Ntp513
Rp514
(dp515
g37
Nsg15
Nsg38
Nsg39
F1.8288000000000002
sg40
I00
sg17
Nsg18
Nsg19
g512
sg41
F0.0
sg42
F0.0026068869152480003
sg43
F0.0
sg20
Nsg21
Nsg44
I00
sg45
S'junction159start_leak_control'
p516
sg22
Nsg47
I15
sg48
F0.0026068869152480003
sg49
F0.0
sg50
S'junction159end_leak_control'
p517
sbsg23
g25
sS'239'
p518
g0
(g33
g2
Ntp519
Rp520
(dp521
g37
Nsg15
Nsg38
Nsg39
F3.9624
sg40
I00
sg17
Nsg18
Nsg19
g518
sg41
F0.0
sg42
F0.0028144536614040003
sg43
F0.0
sg20
Nsg21
Nsg44
I00
sg45
S'junction239start_leak_control'
p522
sg22
Nsg47
I15
sg48
F0.0028144536614040003
sg49
F0.0
sg50
S'junction239end_leak_control'
p523
sbsS'237'
p524
g0
(g33
g2
Ntp525
Rp526
(dp527
g37
Nsg15
Nsg38
Nsg39
F4.2672
sg40
I00
sg17
Nsg18
Nsg19
g524
sg41
F0.0
sg42
F0.000984837965804
sg43
F0.0
sg20
Nsg21
Nsg44
I00
sg45
S'junction237start_leak_control'
p528
sg22
Nsg47
I15
sg48
F0.000984837965804
sg49
F0.0
sg50
S'junction237end_leak_control'
p529
sbsS'231'
p530
g0
(g33
g2
Ntp531
Rp532
(dp533
g37
Nsg15
Nsg38
Nsg39
F1.524
sg40
I00
sg17
Nsg18
Nsg19
g530
sg41
F0.0
sg42
F0.0010397264366720001
sg43
F0.0
sg20
Nsg21
Nsg44
I00
sg45
S'junction231start_leak_control'
p534
sg22
Nsg47
I15
sg48
F0.0010397264366720001
sg49
F0.0
sg50
S'junction231end_leak_control'
p535
sbsS'40'
p536
g0
(g33
g2
Ntp537
Rp538
(dp539
g37
Nsg15
Nsg38
Nsg39
F40.203120000000006
sg40
I00
sg17
Nsg18
Nsg19
g536
sg41
F0.0
sg42
F0.0
sg43
F0.0
sg20
Nsg21
Nsg44
I00
sg45
S'junction40start_leak_control'
p540
sg22
Nsg47
I15
sg48
F0.0
sg49
F0.0
sg50
S'junction40end_leak_control'
p541
sbsS'1'
p542
g0
(g258
g2
Ntp543
Rp544
(dp545
g262
F25.908
sg15
F44.196000000000005
sg39
F40.203120000000006
sg263
Nsg40
I00
sg264
F9.784080000000001
sg17
Nsg265
F3.99288
sg266
F0.0
sg18
Nsg19
g542
sg41
F0.0
sg45
S'tank1start_leak_control'
p546
sg43
F0.0
sg20
Nsg21
Nsg44
I00
sg22
Nsg268
Nsg269
F0.030480000000000004
sg50
S'tank1end_leak_control'
p547
sbsS'201'
p548
g0
(g33
g2
Ntp549
Rp550
(dp551
g37
Nsg15
Nsg38
Nsg39
F0.030480000000000004
sg40
I00
sg17
Nsg18
Nsg19
g548
sg41
F0.0
sg42
F0.0028144536614040003
sg43
F0.0
sg20
Nsg21
Nsg44
I00
sg45
S'junction201start_leak_control'
p552
sg22
Nsg47
I15
sg48
F0.0028144536614040003
sg49
F0.0
sg50
S'junction201end_leak_control'
p553
sbsS'147'
p554
g0
(g33
g2
Ntp555
Rp556
(dp557
g37
Nsg15
Nsg38
Nsg39
F5.638800000000001
sg40
I00
sg17
Nsg18
Nsg19
g554
sg41
F0.0
sg42
F0.0005394211792200001
sg43
F0.0
sg20
Nsg21
Nsg44
I00
sg45
S'junction147start_leak_control'
p558
sg22
Nsg47
I15
sg48
F0.0005394211792200001
sg49
F0.0
sg50
S'junction147end_leak_control'
p559
sbsS'203'
p560
g0
(g33
g2
Ntp561
Rp562
(dp563
g37
Nsg15
Nsg38
S'5'
p564
sg39
F0.6096
sg40
I00
sg17
Nsg18
Nsg19
g560
sg41
F0.0
sg42
F6.30901964e-05
sg43
F0.0
sg20
Nsg21
Nsg44
I00
sg45
S'junction203start_leak_control'
p565
sg22
Nsg47
I15
sg48
F6.30901964e-05
sg49
F0.0
sg50
S'junction203end_leak_control'
p566
sbsS'145'
p567
g0
(g33
g2
Ntp568
Rp569
(dp570
g37
Nsg15
Nsg38
Nsg39
F0.3048
sg40
I00
sg17
Nsg18
Nsg19
g567
sg41
F0.0
sg42
F0.001743182126532
sg43
F0.0
sg20
Nsg21
Nsg44
I00
sg45
S'junction145start_leak_control'
p571
sg22
Nsg47
I15
sg48
F0.001743182126532
sg49
F0.0
sg50
S'junction145end_leak_control'
p572
sbsS'205'
p573
g0
(g33
g2
Ntp574
Rp575
(dp576
g37
Nsg15
Nsg38
Nsg39
F6.4008
sg40
I00
sg17
Nsg18
Nsg19
g573
sg41
F0.0
sg42
F0.004123575236704
sg43
F0.0
sg20
Nsg21
Nsg44
I00
sg45
S'junction205start_leak_control'
p577
sg22
Nsg47
I15
sg48
F0.004123575236704
sg49
F0.0
sg50
S'junction205end_leak_control'
p578
sbsS'204'
p579
g0
(g33
g2
Ntp580
Rp581
(dp582
g37
Nsg15
Nsg38
Nsg39
F6.4008
sg40
I00
sg17
Nsg18
Nsg19
g579
sg41
F0.0
sg42
F0.0
sg43
F0.0
sg20
Nsg21
Nsg44
I00
sg45
S'junction204start_leak_control'
p583
sg22
Nsg47
I15
sg48
F0.0
sg49
F0.0
sg50
S'junction204end_leak_control'
p584
sbsS'207'
p585
g0
(g33
g2
Ntp586
Rp587
(dp588
g37
Nsg15
Nsg38
Nsg39
F2.7432000000000003
sg40
I00
sg17
Nsg18
Nsg19
g585
sg41
F0.0
sg42
F0.004377828728196
sg43
F0.0
sg20
Nsg21
Nsg44
I00
sg45
S'junction207start_leak_control'
p589
sg22
Nsg47
I15
sg48
F0.004377828728196
sg49
F0.0
sg50
S'junction207end_leak_control'
p590
sbsS'206'
p591
g0
(g33
g2
Ntp592
Rp593
(dp594
g37
Nsg15
Nsg38
Nsg39
F0.3048
sg40
I00
sg17
Nsg18
Nsg19
g591
sg41
F0.0
sg42
F0.0
sg43
F0.0
sg20
Nsg21
Nsg44
I00
sg45
S'junction206start_leak_control'
p595
sg22
Nsg47
I15
sg48
F0.0
sg49
F0.0
sg50
S'junction206end_leak_control'
p596
sbsS'209'
p597
g0
(g33
g2
Ntp598
Rp599
(dp600
g37
Nsg15
Nsg38
Nsg39
F-0.6096
sg40
I00
sg17
Nsg18
Nsg19
g597
sg41
F0.0
sg42
F5.4888470868e-05
sg43
F0.0
sg20
Nsg21
Nsg44
I00
sg45
S'junction209start_leak_control'
p601
sg22
Nsg47
I15
sg48
F5.4888470868e-05
sg49
F0.0
sg50
S'junction209end_leak_control'
p602
sbsS'208'
p603
g0
(g33
g2
Ntp604
Rp605
(dp606
g37
Nsg15
Nsg38
Nsg39
F4.8768
sg40
I00
sg17
Nsg18
Nsg19
g603
sg41
F0.0
sg42
F0.0
sg43
F0.0
sg20
Nsg21
Nsg44
I00
sg45
S'junction208start_leak_control'
p607
sg22
Nsg47
I15
sg48
F0.0
sg49
F0.0
sg50
S'junction208end_leak_control'
p608
sbsS'149'
p609
g0
(g33
g2
Ntp610
Rp611
(dp612
g37
Nsg15
Nsg38
Nsg39
F4.8768
sg40
I00
sg17
Nsg18
Nsg19
g609
sg41
F0.0
sg42
F0.0017078516165480002
sg43
F0.0
sg20
Nsg21
Nsg44
I00
sg45
S'junction149start_leak_control'
p613
sg22
Nsg47
I15
sg48
F0.0017078516165480002
sg49
F0.0
sg50
S'junction149end_leak_control'
p614
sbsg122
g0
(g258
g2
Ntp615
Rp616
(dp617
g262
F15.24
sg15
F42.672
sg39
F35.5092
sg263
Nsg40
I00
sg264
F12.28344
sg17
Nsg265
F7.162800000000001
sg266
F0.0
sg18
Nsg19
g122
sg41
F0.0
sg45
S'tank2start_leak_control'
p618
sg43
F0.0
sg20
Nsg21
Nsg44
I00
sg22
Nsg268
Nsg269
F1.9812
sg50
S'tank2end_leak_control'
p619
sbsS'263'
p620
g0
(g33
g2
Ntp621
Rp622
(dp623
g37
Nsg15
Nsg38
Nsg39
F0.0
sg40
I00
sg17
Nsg18
Nsg19
g620
sg41
F0.0
sg42
F0.0
sg43
F0.0
sg20
Nsg21
Nsg44
I00
sg45
S'junction263start_leak_control'
p624
sg22
Nsg47
I15
sg48
F0.0
sg49
F0.0
sg50
S'junction263end_leak_control'
p625
sbssS'_pipes'
p626
(dp627
S'217'
p628
g0
(cwntr.network.WaterNetworkModel
Pipe
p629
g2
Ntp630
Rp631
(dp632
S'status'
p633
I1
sS'_link_name'
p634
g628
sS'prev_status'
p635
Nsg262
F0.30479999999999996
sg268
NsS'_base_status'
p636
I1
sS'_end_node_name'
p637
S'193'
p638
sS'flow'
p639
NsS'roughness'
p640
F130.0
sS'length'
p641
F158.496
sS'minor_loss'
p642
F0.0
sS'wall_rxn_coeff'
p643
NsS'cv'
p644
I00
sS'_start_node_name'
p645
S'191'
p646
sS'prev_flow'
p647
NsbsS'215'
p648
g0
(g629
g2
Ntp649
Rp650
(dp651
g633
I1
sg634
g648
sg635
Nsg262
F0.30479999999999996
sg268
Nsg636
I1
sg637
S'189'
p652
sg639
Nsg640
F130.0
sg641
F374.904
sg642
F0.0
sg643
Nsg644
I00
sg645
S'267'
p653
sg647
NsbsS'213'
p654
g0
(g629
g2
Ntp655
Rp656
(dp657
g633
I1
sg634
g654
sg635
Nsg262
F0.30479999999999996
sg268
Nsg636
I1
sg637
S'187'
p658
sg639
Nsg640
F130.0
sg641
F780.288
sg642
F0.0
sg643
Nsg644
I00
sg645
S'191'
p659
sg647
NsbsS'211'
p660
g0
(g629
g2
Ntp661
Rp662
(dp663
g633
I1
sg634
g660
sg635
Nsg262
F0.30479999999999996
sg268
Nsg636
I1
sg637
S'269'
p664
sg639
Nsg640
F130.0
sg641
F196.9008
sg642
F0.0
sg643
Nsg644
I00
sg645
S'169'
p665
sg647
NsbsS'219'
p666
g0
(g629
g2
Ntp667
Rp668
(dp669
g633
I1
sg634
g666
sg635
Nsg262
F0.30479999999999996
sg268
Nsg636
I1
sg637
S'195'
p670
sg639
Nsg640
F130.0
sg641
F109.72800000000001
sg642
F0.0
sg643
Nsg644
I00
sg645
S'193'
p671
sg647
NsbsS'133'
p672
g0
(g629
g2
Ntp673
Rp674
(dp675
g633
I1
sg634
g672
sg635
Nsg262
F0.508
sg268
Nsg636
I1
sg637
S'127'
p676
sg639
Nsg640
F130.0
sg641
F239.268
sg642
F0.0
sg643
Nsg644
I00
sg645
S'20'
p677
sg647
NsbsS'131'
p678
g0
(g629
g2
Ntp679
Rp680
(dp681
g633
I1
sg634
g678
sg635
Nsg262
F0.6095999999999999
sg268
Nsg636
I1
sg637
S'127'
p682
sg639
Nsg640
F130.0
sg641
F987.552
sg642
F0.0
sg643
Nsg644
I00
sg645
S'125'
p683
sg647
NsbsS'137'
p684
g0
(g629
g2
Ntp685
Rp686
(dp687
g633
I1
sg634
g684
sg635
Nsg262
F0.4064
sg268
Nsg636
I1
sg637
S'131'
p688
sg639
Nsg640
F130.0
sg641
F1975.104
sg642
F0.0
sg643
Nsg644
I00
sg645
S'129'
p689
sg647
NsbsS'135'
p690
g0
(g629
g2
Ntp691
Rp692
(dp693
g633
I1
sg634
g690
sg635
Nsg262
F0.6095999999999999
sg268
Nsg636
I1
sg637
S'129'
p694
sg639
Nsg640
F130.0
sg641
F274.32
sg642
F0.0
sg643
Nsg644
I00
sg645
S'127'
p695
sg647
NsbsS'20'
p696
g0
(g629
g2
Ntp697
Rp698
(dp699
g633
I1
sg634
g696
sg635
Nsg262
F2.5145999999999997
sg268
Nsg636
I1
sg637
S'20'
p700
sg639
Nsg640
F199.0
sg641
F30.1752
sg642
F0.0
sg643
Nsg644
I00
sg645
g257
sg647
NsbsS'289'
p701
g0
(g629
g2
Ntp702
Rp703
(dp704
g633
I1
sg634
g701
sg635
Nsg262
F0.254
sg268
Nsg636
I1
sg637
S'255'
p705
sg639
Nsg640
F130.0
sg641
F281.94
sg642
F0.0
sg643
Nsg644
I00
sg645
S'50'
p706
sg647
NsbsS'281'
p707
g0
(g629
g2
Ntp708
Rp709
(dp710
g633
I1
sg634
g707
sg635
Nsg262
F0.254
sg268
Nsg636
I1
sg637
S'247'
p711
sg639
Nsg640
F130.0
sg641
F135.636
sg642
F0.0
sg643
Nsg644
I00
sg645
S'241'
p712
sg647
NsbsS'283'
p713
g0
(g629
g2
Ntp714
Rp715
(dp716
g633
I1
sg634
g713
sg635
Nsg262
F0.30479999999999996
sg268
Nsg636
I1
sg637
S'249'
p717
sg639
Nsg640
F130.0
sg641
F131.064
sg642
F0.0
sg643
Nsg644
I00
sg645
S'239'
p718
sg647
NsbsS'285'
p719
g0
(g629
g2
Ntp720
Rp721
(dp722
g633
I1
sg634
g719
sg635
Nsg262
F0.30479999999999996
sg268
Nsg636
I1
sg637
S'249'
p723
sg639
Nsg640
F130.0
sg641
F3.048
sg642
F0.0
sg643
Nsg644
I00
sg645
S'247'
p724
sg647
NsbsS'287'
p725
g0
(g629
g2
Ntp726
Rp727
(dp728
g633
I1
sg634
g725
sg635
Nsg262
F0.254
sg268
Nsg636
I1
sg637
S'255'
p729
sg639
Nsg640
F130.0
sg641
F423.672
sg642
F0.0
sg643
Nsg644
I00
sg645
S'247'
p730
sg647
NsbsS'120'
p731
g0
(g629
g2
Ntp732
Rp733
(dp734
g633
I1
sg634
g731
sg635
Nsg262
F0.30479999999999996
sg268
Nsg636
I1
sg637
S'120'
p735
sg639
Nsg640
F130.0
sg641
F222.50400000000002
sg642
F0.0
sg643
Nsg644
I00
sg645
S'119'
p736
sg647
NsbsS'121'
p737
g0
(g629
g2
Ntp738
Rp739
(dp740
g633
I1
sg634
g737
sg635
Nsg262
F0.30479999999999996
sg268
Nsg636
I1
sg637
S'117'
p741
sg639
Nsg640
F130.0
sg641
F569.976
sg642
F0.0
sg643
Nsg644
I00
sg645
S'120'
p742
sg647
NsbsS'122'
p743
g0
(g629
g2
Ntp744
Rp745
(dp746
g633
I1
sg634
g743
sg635
Nsg262
F0.2032
sg268
Nsg636
I1
sg637
S'120'
p747
sg639
Nsg640
F130.0
sg641
F624.84
sg642
F0.0
sg643
Nsg644
I00
sg645
S'121'
p748
sg647
NsbsS'123'
p749
g0
(g629
g2
Ntp750
Rp751
(dp752
g633
I1
sg634
g749
sg635
Nsg262
F0.762
sg268
Nsg636
I1
sg637
S'119'
p753
sg639
Nsg640
F141.0
sg641
F609.6
sg642
F0.0
sg643
Nsg644
I00
sg645
S'121'
p754
sg647
NsbsS'125'
p755
g0
(g629
g2
Ntp756
Rp757
(dp758
g633
I1
sg634
g755
sg635
Nsg262
F0.762
sg268
Nsg636
I1
sg637
S'121'
p759
sg639
Nsg640
F141.0
sg641
F457.20000000000005
sg642
F0.0
sg643
Nsg644
I00
sg645
S'123'
p760
sg647
NsbsS'129'
p761
g0
(g629
g2
Ntp762
Rp763
(dp764
g633
I1
sg634
g761
sg635
Nsg262
F0.6095999999999999
sg268
Nsg636
I1
sg637
S'125'
p765
sg639
Nsg640
F130.0
sg641
F283.464
sg642
F0.0
sg643
Nsg644
I00
sg645
S'121'
p766
sg647
NsbsS'269'
p767
g0
(g629
g2
Ntp768
Rp769
(dp770
g633
I1
sg634
g767
sg635
Nsg262
F0.30479999999999996
sg268
Nsg636
I1
sg637
S'237'
p771
sg639
Nsg640
F130.0
sg641
F633.984
sg642
F0.0
sg643
Nsg644
I00
sg645
S'211'
p772
sg647
NsbsS'50'
p773
g0
(g629
g2
Ntp774
Rp775
(dp776
g633
I1
sg634
g773
sg635
Nsg262
F2.5145999999999997
sg268
Nsg636
I1
sg637
S'50'
p777
sg639
Nsg640
F199.0
sg641
F30.1752
sg642
F0.0
sg643
Nsg644
I00
sg645
g122
sg647
NsbsS'299'
p778
g0
(g629
g2
Ntp779
Rp780
(dp781
g633
I1
sg634
g778
sg635
Nsg262
F0.2032
sg268
Nsg636
I1
sg637
S'259'
p782
sg639
Nsg640
F130.0
sg641
F106.68
sg642
F0.0
sg643
Nsg644
I00
sg645
S'257'
p783
sg647
NsbsS'297'
p784
g0
(g629
g2
Ntp785
Rp786
(dp787
g633
I1
sg634
g784
sg635
Nsg262
F0.2032
sg268
Nsg636
I1
sg637
S'257'
p788
sg639
Nsg640
F130.0
sg641
F196.596
sg642
F0.0
sg643
Nsg644
I00
sg645
S'120'
p789
sg647
NsbsS'295'
p790
g0
(g629
g2
Ntp791
Rp792
(dp793
g633
I1
sg634
g790
sg635
Nsg262
F0.30479999999999996
sg268
Nsg636
I1
sg637
S'251'
p794
sg639
Nsg640
F130.0
sg641
F441.96000000000004
sg642
F0.0
sg643
Nsg644
I00
sg645
S'249'
p795
sg647
NsbsS'293'
p796
g0
(g629
g2
Ntp797
Rp798
(dp799
g633
I1
sg634
g796
sg635
Nsg262
F0.2032
sg268
Nsg636
I1
sg637
S'251'
p800
sg639
Nsg640
F130.0
sg641
F335.28000000000003
sg642
F0.0
sg643
Nsg644
I00
sg645
S'255'
p801
sg647
NsbsS'291'
p802
g0
(g629
g2
Ntp803
Rp804
(dp805
g633
I1
sg634
g802
sg635
Nsg262
F0.254
sg268
Nsg636
I1
sg637
S'253'
p806
sg639
Nsg640
F130.0
sg641
F335.28000000000003
sg642
F0.0
sg643
Nsg644
I00
sg645
S'255'
p807
sg647
NsbsS'319'
p808
g0
(g629
g2
Ntp809
Rp810
(dp811
g633
I1
sg634
g808
sg635
Nsg262
F0.30479999999999996
sg268
Nsg636
I1
sg637
S'205'
p812
sg639
Nsg640
F130.0
sg641
F196.596
sg642
F0.0
sg643
Nsg644
I00
sg645
S'273'
p813
sg647
NsbsS'199'
p814
g0
(g629
g2
Ntp815
Rp816
(dp817
g633
I1
sg634
g814
sg635
Nsg262
F0.30479999999999996
sg268
Nsg636
I1
sg637
S'183'
p818
sg639
Nsg640
F130.0
sg641
F64.00800000000001
sg642
F0.0
sg643
Nsg644
I00
sg645
S'179'
p819
sg647
NsbsS'195'
p820
g0
(g629
g2
Ntp821
Rp822
(dp823
g633
I1
sg634
g820
sg635
Nsg262
F0.30479999999999996
sg268
Nsg636
I1
sg637
S'177'
p824
sg639
Nsg640
F130.0
sg641
F9.144
sg642
F0.0
sg643
Nsg644
I00
sg645
S'181'
p825
sg647
NsbsS'197'
p826
g0
(g629
g2
Ntp827
Rp828
(dp829
g633
I1
sg634
g826
sg635
Nsg262
F0.30479999999999996
sg268
Nsg636
I1
sg637
S'179'
p830
sg639
Nsg640
F130.0
sg641
F9.144
sg642
F0.0
sg643
Nsg644
I00
sg645
S'177'
p831
sg647
NsbsS'191'
p832
g0
(g629
g2
Ntp833
Rp834
(dp835
g633
I1
sg634
g832
sg635
Nsg262
F0.6095999999999999
sg268
Nsg636
I1
sg637
S'171'
p836
sg639
Nsg640
F130.0
sg641
F231.64800000000002
sg642
F0.0
sg643
Nsg644
I00
sg645
S'271'
p837
sg647
NsbsS'193'
p838
g0
(g629
g2
Ntp839
Rp840
(dp841
g633
I1
sg634
g838
sg635
Nsg262
F0.6095999999999999
sg268
Nsg636
I1
sg637
S'181'
p842
sg639
Nsg640
F130.0
sg641
F9.144
sg642
F0.0
sg643
Nsg644
I00
sg645
S'35'
p843
sg647
NsbsS'115'
p844
g0
(g629
g2
Ntp845
Rp846
(dp847
g633
I1
sg634
g844
sg635
Nsg262
F0.2032
sg268
Nsg636
I1
sg637
S'115'
p848
sg639
Nsg640
F130.0
sg641
F594.36
sg642
F0.0
sg643
Nsg644
I00
sg645
S'107'
p849
sg647
NsbsS'114'
p850
g0
(g629
g2
Ntp851
Rp852
(dp853
g633
I1
sg634
g850
sg635
Nsg262
F0.2032
sg268
Nsg636
I1
sg637
S'113'
p854
sg639
Nsg640
F130.0
sg641
F609.6
sg642
F0.0
sg643
Nsg644
I00
sg645
S'115'
p855
sg647
NsbsS'117'
p856
g0
(g629
g2
Ntp857
Rp858
(dp859
g633
I1
sg634
g856
sg635
Nsg262
F0.30479999999999996
sg268
Nsg636
I1
sg637
S'105'
p860
sg639
Nsg640
F130.0
sg641
F830.58
sg642
F0.0
sg643
Nsg644
I00
sg645
S'263'
p861
sg647
NsbsS'116'
p862
g0
(g629
g2
Ntp863
Rp864
(dp865
g633
I1
sg634
g862
sg635
Nsg262
F0.30479999999999996
sg268
Nsg636
I1
sg637
S'193'
p866
sg639
Nsg640
F130.0
sg641
F505.968
sg642
F0.0
sg643
Nsg644
I00
sg645
S'113'
p867
sg647
NsbsS'111'
p868
g0
(g629
g2
Ntp869
Rp870
(dp871
g633
I1
sg634
g868
sg635
Nsg262
F0.30479999999999996
sg268
Nsg636
I1
sg637
S'111'
p872
sg639
Nsg640
F130.0
sg641
F609.6
sg642
F0.0
sg643
Nsg644
I00
sg645
S'109'
p873
sg647
NsbsS'275'
p874
g0
(g629
g2
Ntp875
Rp876
(dp877
g633
I1
sg634
g874
sg635
Nsg262
F0.30479999999999996
sg268
Nsg636
I1
sg637
S'241'
p878
sg639
Nsg640
F130.0
sg641
F10.668000000000001
sg642
F0.0
sg643
Nsg644
I00
sg645
S'239'
p879
sg647
NsbsS'113'
p880
g0
(g629
g2
Ntp881
Rp882
(dp883
g633
I1
sg634
g880
sg635
Nsg262
F0.30479999999999996
sg268
Nsg636
I1
sg637
S'113'
p884
sg639
Nsg640
F130.0
sg641
F512.0640000000001
sg642
F0.0
sg643
Nsg644
I00
sg645
S'111'
p885
sg647
NsbsS'112'
p886
g0
(g629
g2
Ntp887
Rp888
(dp889
g633
I1
sg634
g886
sg635
Nsg262
F0.30479999999999996
sg268
Nsg636
I1
sg637
S'111'
p890
sg639
Nsg640
F130.0
sg641
F353.56800000000004
sg642
F0.0
sg643
Nsg644
I00
sg645
S'115'
p891
sg647
NsbsS'313'
p892
g0
(g629
g2
Ntp893
Rp894
(dp895
g633
I1
sg634
g892
sg635
Nsg262
F0.30479999999999996
sg268
Nsg636
I1
sg637
S'189'
p896
sg639
Nsg640
F130.0
sg641
F196.9008
sg642
F0.0
sg643
Nsg644
I00
sg645
S'269'
p897
sg647
NsbsS'119'
p898
g0
(g629
g2
Ntp899
Rp900
(dp901
g633
I1
sg634
g898
sg635
Nsg262
F0.30479999999999996
sg268
Nsg636
I1
sg637
S'117'
p902
sg639
Nsg640
F130.0
sg641
F664.464
sg642
F0.0
sg643
Nsg644
I00
sg645
S'115'
p903
sg647
NsbsS'309'
p904
g0
(g629
g2
Ntp905
Rp906
(dp907
g633
I1
sg634
g904
sg635
Nsg262
F0.2032
sg268
Nsg636
I1
sg637
S'267'
p908
sg639
Nsg640
F130.0
sg641
F481.584
sg642
F0.0
sg643
Nsg644
I00
sg645
S'265'
p909
sg647
NsbsS'301'
p910
g0
(g629
g2
Ntp911
Rp912
(dp913
g633
I1
sg634
g910
sg635
Nsg262
F0.2032
sg268
Nsg636
I1
sg637
S'263'
p914
sg639
Nsg640
F130.0
sg641
F426.72
sg642
F0.0
sg643
Nsg644
I00
sg645
S'259'
p915
sg647
NsbsS'303'
p916
g0
(g629
g2
Ntp917
Rp918
(dp919
g633
I1
sg634
g916
sg635
Nsg262
F0.2032
sg268
Nsg636
I1
sg637
S'261'
p920
sg639
Nsg640
F130.0
sg641
F426.72
sg642
F0.0
sg643
Nsg644
I00
sg645
S'257'
p921
sg647
NsbsS'305'
p922
g0
(g629
g2
Ntp923
Rp924
(dp925
g633
I1
sg634
g922
sg635
Nsg262
F0.30479999999999996
sg268
Nsg636
I1
sg637
S'261'
p926
sg639
Nsg640
F130.0
sg641
F196.596
sg642
F0.0
sg643
Nsg644
I00
sg645
S'117'
p927
sg647
NsbsS'307'
p928
g0
(g629
g2
Ntp929
Rp930
(dp931
g633
I1
sg634
g928
sg635
Nsg262
F0.30479999999999996
sg268
Nsg636
I1
sg637
S'263'
p932
sg639
Nsg640
F130.0
sg641
F106.68
sg642
F0.0
sg643
Nsg644
I00
sg645
S'261'
p933
sg647
NsbsS'245'
p934
g0
(g629
g2
Ntp935
Rp936
(dp937
g633
I1
sg634
g934
sg635
Nsg262
F0.4064
sg268
Nsg636
I1
sg637
S'213'
p938
sg639
Nsg640
F130.0
sg641
F301.752
sg642
F0.0
sg643
Nsg644
I00
sg645
S'211'
p939
sg647
NsbsS'247'
p940
g0
(g629
g2
Ntp941
Rp942
(dp943
g633
I1
sg634
g940
sg635
Nsg262
F0.4064
sg268
Nsg636
I1
sg637
S'215'
p944
sg639
Nsg640
F130.0
sg641
F1306.068
sg642
F0.0
sg643
Nsg644
I00
sg645
S'213'
p945
sg647
NsbsS'109'
p946
g0
(g629
g2
Ntp947
Rp948
(dp949
g633
I1
sg634
g946
sg635
Nsg262
F0.4064
sg268
Nsg636
I1
sg637
S'109'
p950
sg639
Nsg640
F130.0
sg641
F1200.912
sg642
F0.0
sg643
Nsg644
I00
sg645
S'103'
p951
sg647
NsbsS'241'
p952
g0
(g629
g2
Ntp953
Rp954
(dp955
g633
I1
sg634
g952
sg635
Nsg262
F0.30479999999999996
sg268
Nsg636
I1
sg637
S'209'
p956
sg639
Nsg640
F130.0
sg641
F269.748
sg642
F0.0
sg643
Nsg644
I00
sg645
S'208'
p957
sg647
NsbsS'240'
p958
g0
(g629
g2
Ntp959
Rp960
(dp961
g633
I1
sg634
g958
sg635
Nsg262
F0.30479999999999996
sg268
Nsg636
I1
sg637
S'208'
p962
sg639
Nsg640
F130.0
sg641
F155.448
sg642
F0.0
sg643
Nsg644
I00
sg645
S'206'
p963
sg647
NsbsS'243'
p964
g0
(g629
g2
Ntp965
Rp966
(dp967
g633
I1
sg634
g964
sg635
Nsg262
F0.4064
sg268
Nsg636
I1
sg637
S'211'
p968
sg639
Nsg640
F130.0
sg641
F368.808
sg642
F0.0
sg643
Nsg644
I00
sg645
S'209'
p969
sg647
NsbsS'103'
p970
g0
(g629
g2
Ntp971
Rp972
(dp973
g633
I1
sg634
g970
sg635
Nsg262
F0.4064
sg268
Nsg636
I1
sg637
S'103'
p974
sg639
Nsg640
F130.0
sg641
F411.48
sg642
F0.0
sg643
Nsg644
I00
sg645
S'101'
p975
sg647
NsbsS'101'
p976
g0
(g629
g2
Ntp977
Rp978
(dp979
g633
I1
sg634
g976
sg635
Nsg262
F0.4572
sg268
Nsg636
I1
sg637
S'101'
p980
sg639
Nsg640
F110.0
sg641
F4328.16
sg642
F0.0
sg643
Nsg644
I00
sg645
S'10'
p981
sg647
NsbsS'249'
p982
g0
(g629
g2
Ntp983
Rp984
(dp985
g633
I1
sg634
g982
sg635
Nsg262
F0.4064
sg268
Nsg636
I1
sg637
S'217'
p986
sg639
Nsg640
F130.0
sg641
F505.968
sg642
F0.0
sg643
Nsg644
I00
sg645
S'215'
p987
sg647
NsbsS'107'
p988
g0
(g629
g2
Ntp989
Rp990
(dp991
g633
I1
sg634
g988
sg635
Nsg262
F0.30479999999999996
sg268
Nsg636
I1
sg637
S'107'
p992
sg639
Nsg640
F130.0
sg641
F448.05600000000004
sg642
F0.0
sg643
Nsg644
I00
sg645
S'105'
p993
sg647
NsbsS'105'
p994
g0
(g629
g2
Ntp995
Rp996
(dp997
g633
I1
sg634
g994
sg635
Nsg262
F0.30479999999999996
sg268
Nsg636
I1
sg637
S'105'
p998
sg639
Nsg640
F130.0
sg641
F774.192
sg642
F0.0
sg643
Nsg644
I00
sg645
S'101'
p999
sg647
NsbsS'330'
p1000
g0
(g629
g2
Ntp1001
Rp1002
(dp1003
g633
I0
sg634
g1000
sg635
Nsg262
F0.762
sg268
Nsg636
I0
sg637
S'601'
p1004
sg639
Nsg640
F140.0
sg641
F0.3048
sg642
F0.0
sg643
Nsg644
I00
sg645
S'60'
p1005
sg647
NsbsS'333'
p1006
g0
(g629
g2
Ntp1007
Rp1008
(dp1009
g633
I1
sg634
g1006
sg635
Nsg262
F0.762
sg268
Nsg636
I1
sg637
S'61'
p1010
sg639
Nsg640
F140.0
sg641
F0.3048
sg642
F0.0
sg643
Nsg644
I00
sg645
S'601'
p1011
sg647
NsbsS'60'
p1012
g0
(g629
g2
Ntp1013
Rp1014
(dp1015
g633
I1
sg634
g1012
sg635
Nsg262
F0.6095999999999999
sg268
Nsg636
I1
sg637
S'60'
p1016
sg639
Nsg640
F140.0
sg641
F375.2088
sg642
F0.0
sg643
Nsg644
I00
sg645
S'River'
p1017
sg647
NsbsS'179'
p1018
g0
(g629
g2
Ntp1019
Rp1020
(dp1021
g633
I1
sg634
g1018
sg635
Nsg262
F0.762
sg268
Nsg636
I1
sg637
S'163'
p1022
sg639
Nsg640
F141.0
sg641
F131.064
sg642
F0.0
sg643
Nsg644
I00
sg645
S'161'
p1023
sg647
NsbsS'177'
p1024
g0
(g629
g2
Ntp1025
Rp1026
(dp1027
g633
I1
sg634
g1024
sg635
Nsg262
F0.762
sg268
Nsg636
I1
sg637
S'161'
p1028
sg639
Nsg640
F141.0
sg641
F609.6
sg642
F0.0
sg643
Nsg644
I00
sg645
S'159'
p1029
sg647
NsbsS'175'
p1030
g0
(g629
g2
Ntp1031
Rp1032
(dp1033
g633
I1
sg634
g1030
sg635
Nsg262
F0.762
sg268
Nsg636
I1
sg637
S'159'
p1034
sg639
Nsg640
F141.0
sg641
F886.9680000000001
sg642
F0.0
sg643
Nsg644
I00
sg645
S'157'
p1035
sg647
NsbsS'251'
p1036
g0
(g629
g2
Ntp1037
Rp1038
(dp1039
g633
I1
sg634
g1036
sg635
Nsg262
F0.35559999999999997
sg268
Nsg636
I1
sg637
S'219'
p1040
sg639
Nsg640
F130.0
sg641
F624.84
sg642
F0.0
sg643
Nsg644
I00
sg645
S'217'
p1041
sg647
NsbsS'173'
p1042
g0
(g629
g2
Ntp1043
Rp1044
(dp1045
g633
I1
sg634
g1042
sg635
Nsg262
F0.762
sg268
Nsg636
I1
sg637
S'157'
p1046
sg639
Nsg640
F141.0
sg641
F633.984
sg642
F0.0
sg643
Nsg644
I00
sg645
S'119'
p1047
sg647
NsbsS'257'
p1048
g0
(g629
g2
Ntp1049
Rp1050
(dp1051
g633
I1
sg634
g1048
sg635
Nsg262
F0.30479999999999996
sg268
Nsg636
I1
sg637
S'225'
p1052
sg639
Nsg640
F130.0
sg641
F475.488
sg642
F0.0
sg643
Nsg644
I00
sg645
S'217'
p1053
sg647
NsbsS'171'
p1054
g0
(g629
g2
Ntp1055
Rp1056
(dp1057
g633
I1
sg634
g1054
sg635
Nsg262
F0.30479999999999996
sg268
Nsg636
I1
sg637
S'151'
p1058
sg639
Nsg640
F130.0
sg641
F1054.608
sg642
F0.0
sg643
Nsg644
I00
sg645
S'119'
p1059
sg647
NsbsS'145'
p1060
g0
(g629
g2
Ntp1061
Rp1062
(dp1063
g633
I1
sg634
g1060
sg635
Nsg262
F0.2032
sg268
Nsg636
I1
sg637
S'139'
p1064
sg639
Nsg640
F130.0
sg641
F838.2
sg642
F0.0
sg643
Nsg644
I00
sg645
S'129'
p1065
sg647
NsbsS'183'
p1066
g0
(g629
g2
Ntp1067
Rp1068
(dp1069
g633
I1
sg634
g1066
sg635
Nsg262
F0.762
sg268
Nsg636
I1
sg637
S'169'
p1070
sg639
Nsg640
F141.0
sg641
F179.83200000000002
sg642
F0.0
sg643
Nsg644
I00
sg645
S'265'
p1071
sg647
NsbsS'180'
p1072
g0
(g629
g2
Ntp1073
Rp1074
(dp1075
g633
I1
sg634
g1072
sg635
Nsg262
F0.35559999999999997
sg268
Nsg636
I1
sg637
S'164'
p1076
sg639
Nsg640
F130.0
sg641
F45.72
sg642
F0.0
sg643
Nsg644
I00
sg645
S'163'
p1077
sg647
NsbsS'181'
p1078
g0
(g629
g2
Ntp1079
Rp1080
(dp1081
g633
I1
sg634
g1078
sg635
Nsg262
F0.35559999999999997
sg268
Nsg636
I1
sg637
S'166'
p1082
sg639
Nsg640
F130.0
sg641
F149.352
sg642
F0.0
sg643
Nsg644
I00
sg645
S'164'
p1083
sg647
NsbsS'186'
p1084
g0
(g629
g2
Ntp1085
Rp1086
(dp1087
g633
I1
sg634
g1084
sg635
Nsg262
F0.2032
sg268
Nsg636
I1
sg637
S'204'
p1088
sg639
Nsg640
F130.0
sg641
F30.449520000000003
sg642
F0.0
sg643
Nsg644
I00
sg645
S'187'
p1089
sg647
NsbsS'187'
p1090
g0
(g629
g2
Ntp1091
Rp1092
(dp1093
g633
I1
sg634
g1090
sg635
Nsg262
F0.762
sg268
Nsg636
I1
sg637
S'171'
p1094
sg639
Nsg640
F141.0
sg641
F387.096
sg642
F0.0
sg643
Nsg644
I00
sg645
S'169'
p1095
sg647
NsbsS'185'
p1096
g0
(g629
g2
Ntp1097
Rp1098
(dp1099
g633
I1
sg634
g1096
sg635
Nsg262
F0.2032
sg268
Nsg636
I1
sg637
S'169'
p1100
sg639
Nsg640
F130.0
sg641
F18.288
sg642
F0.0
sg643
Nsg644
I00
sg645
S'167'
p1101
sg647
NsbsS'189'
p1102
g0
(g629
g2
Ntp1103
Rp1104
(dp1105
g633
I1
sg634
g1102
sg635
Nsg262
F0.762
sg268
Nsg636
I1
sg637
S'173'
p1106
sg639
Nsg640
F141.0
sg641
F15.24
sg642
F0.0
sg643
Nsg644
I00
sg645
S'171'
p1107
sg647
NsbsS'311'
p1108
g0
(g629
g2
Ntp1109
Rp1110
(dp1111
g633
I1
sg634
g1108
sg635
Nsg262
F0.30479999999999996
sg268
Nsg636
I1
sg637
S'267'
p1112
sg639
Nsg640
F130.0
sg641
F356.61600000000004
sg642
F0.0
sg643
Nsg644
I00
sg645
S'193'
p1113
sg647
NsbsS'317'
p1114
g0
(g629
g2
Ntp1115
Rp1116
(dp1117
g633
I1
sg634
g1114
sg635
Nsg262
F0.2032
sg268
Nsg636
I1
sg637
S'275'
p1118
sg639
Nsg640
F130.0
sg641
F679.7040000000001
sg642
F0.0
sg643
Nsg644
I00
sg645
S'273'
p1119
sg647
NsbsS'315'
p1120
g0
(g629
g2
Ntp1121
Rp1122
(dp1123
g633
I1
sg634
g1120
sg635
Nsg262
F0.6095999999999999
sg268
Nsg636
I1
sg637
S'271'
p1124
sg639
Nsg640
F130.0
sg641
F79.248
sg642
F0.0
sg643
Nsg644
I00
sg645
S'181'
p1125
sg647
NsbsS'169'
p1126
g0
(g629
g2
Ntp1127
Rp1128
(dp1129
g633
I1
sg634
g1126
sg635
Nsg262
F0.2032
sg268
Nsg636
I1
sg637
S'153'
p1130
sg639
Nsg640
F130.0
sg641
F1389.8880000000001
sg642
F0.0
sg643
Nsg644
I00
sg645
S'125'
p1131
sg647
NsbsS'229'
p1132
g0
(g629
g2
Ntp1133
Rp1134
(dp1135
g633
I1
sg634
g1132
sg635
Nsg262
F0.6095999999999999
sg268
Nsg636
I1
sg637
S'199'
p1136
sg639
Nsg640
F141.0
sg641
F1219.2
sg642
F0.0
sg643
Nsg644
I00
sg645
S'173'
p1137
sg647
NsbsS'225'
p1138
g0
(g629
g2
Ntp1139
Rp1140
(dp1141
g633
I1
sg634
g1138
sg635
Nsg262
F0.30479999999999996
sg268
Nsg636
I1
sg637
S'197'
p1142
sg639
Nsg640
F130.0
sg641
F850.392
sg642
F0.0
sg643
Nsg644
I00
sg645
S'111'
p1143
sg647
NsbsS'223'
p1144
g0
(g629
g2
Ntp1145
Rp1146
(dp1147
g633
I1
sg634
g1144
sg635
Nsg262
F0.30479999999999996
sg268
Nsg636
I1
sg637
S'191'
p1148
sg639
Nsg640
F130.0
sg641
F350.52000000000004
sg642
F0.0
sg643
Nsg644
I00
sg645
S'197'
p1149
sg647
NsbsS'161'
p1150
g0
(g629
g2
Ntp1151
Rp1152
(dp1153
g633
I1
sg634
g1150
sg635
Nsg262
F0.2032
sg268
Nsg636
I1
sg637
S'151'
p1154
sg639
Nsg640
F130.0
sg641
F310.896
sg642
F0.0
sg643
Nsg644
I00
sg645
S'149'
p1155
sg647
NsbsS'221'
p1156
g0
(g629
g2
Ntp1157
Rp1158
(dp1159
g633
I1
sg634
g1156
sg635
Nsg262
F0.2032
sg268
Nsg636
I1
sg637
S'195'
p1160
sg639
Nsg640
F130.0
sg641
F701.0400000000001
sg642
F0.0
sg643
Nsg644
I00
sg645
S'161'
p1161
sg647
NsbsS'163'
p1162
g0
(g629
g2
Ntp1163
Rp1164
(dp1165
g633
I1
sg634
g1162
sg635
Nsg262
F0.30479999999999996
sg268
Nsg636
I1
sg637
S'153'
p1166
sg639
Nsg640
F130.0
sg641
F356.61600000000004
sg642
F0.0
sg643
Nsg644
I00
sg645
S'151'
p1167
sg647
NsbsS'271'
p1168
g0
(g629
g2
Ntp1169
Rp1170
(dp1171
g633
I1
sg634
g1168
sg635
Nsg262
F0.2032
sg268
Nsg636
I1
sg637
S'229'
p1172
sg639
Nsg640
F130.0
sg641
F240.792
sg642
F0.0
sg643
Nsg644
I00
sg645
S'237'
p1173
sg647
NsbsS'273'
p1174
g0
(g629
g2
Ntp1175
Rp1176
(dp1177
g633
I1
sg634
g1174
sg635
Nsg262
F0.30479999999999996
sg268
Nsg636
I1
sg637
S'239'
p1178
sg639
Nsg640
F130.0
sg641
F155.448
sg642
F0.0
sg643
Nsg644
I00
sg645
S'237'
p1179
sg647
NsbsS'151'
p1180
g0
(g629
g2
Ntp1181
Rp1182
(dp1183
g633
I1
sg634
g1180
sg635
Nsg262
F0.2032
sg268
Nsg636
I1
sg637
S'143'
p1184
sg639
Nsg640
F130.0
sg641
F502.92
sg642
F0.0
sg643
Nsg644
I00
sg645
S'15'
p1185
sg647
NsbsS'153'
p1186
g0
(g629
g2
Ntp1187
Rp1188
(dp1189
g633
I1
sg634
g1186
sg635
Nsg262
F0.30479999999999996
sg268
Nsg636
I1
sg637
S'141'
p1190
sg639
Nsg640
F130.0
sg641
F1069.848
sg642
F0.0
sg643
Nsg644
I00
sg645
S'145'
p1191
sg647
NsbsS'155'
p1192
g0
(g629
g2
Ntp1193
Rp1194
(dp1195
g633
I1
sg634
g1192
sg635
Nsg262
F0.30479999999999996
sg268
Nsg636
I1
sg637
S'145'
p1196
sg639
Nsg640
F130.0
sg641
F670.5600000000001
sg642
F0.0
sg643
Nsg644
I00
sg645
S'147'
p1197
sg647
NsbsS'159'
p1198
g0
(g629
g2
Ntp1199
Rp1200
(dp1201
g633
I1
sg634
g1198
sg635
Nsg262
F0.30479999999999996
sg268
Nsg636
I1
sg637
S'149'
p1202
sg639
Nsg640
F130.0
sg641
F268.224
sg642
F0.0
sg643
Nsg644
I00
sg645
S'147'
p1203
sg647
NsbsS'277'
p1204
g0
(g629
g2
Ntp1205
Rp1206
(dp1207
g633
I1
sg634
g1204
sg635
Nsg262
F0.30479999999999996
sg268
Nsg636
I1
sg637
S'243'
p1208
sg639
Nsg640
F130.0
sg641
F670.5600000000001
sg642
F0.0
sg643
Nsg644
I00
sg645
S'241'
p1209
sg647
NsbsS'238'
p1210
g0
(g629
g2
Ntp1211
Rp1212
(dp1213
g633
I1
sg634
g1210
sg635
Nsg262
F0.30479999999999996
sg268
Nsg636
I1
sg637
S'206'
p1214
sg639
Nsg640
F130.0
sg641
F137.16
sg642
F0.0
sg643
Nsg644
I00
sg645
S'207'
p1215
sg647
NsbsS'239'
p1216
g0
(g629
g2
Ntp1217
Rp1218
(dp1219
g633
I1
sg634
g1216
sg635
Nsg262
F0.30479999999999996
sg268
Nsg636
I1
sg637
S'207'
p1220
sg639
Nsg640
F130.0
sg641
F435.86400000000003
sg642
F0.0
sg643
Nsg644
I00
sg645
S'275'
p1221
sg647
NsbsS'235'
p1222
g0
(g629
g2
Ntp1223
Rp1224
(dp1225
g633
I1
sg634
g1222
sg635
Nsg262
F0.30479999999999996
sg268
Nsg636
I1
sg637
S'273'
p1226
sg639
Nsg640
F130.0
sg641
F220.98000000000002
sg642
F0.0
sg643
Nsg644
I00
sg645
S'199'
p1227
sg647
NsbsS'237'
p1228
g0
(g629
g2
Ntp1229
Rp1230
(dp1231
g633
I1
sg634
g1228
sg635
Nsg262
F0.30479999999999996
sg268
Nsg636
I1
sg637
S'207'
p1232
sg639
Nsg640
F130.0
sg641
F365.76
sg642
F0.0
sg643
Nsg644
I00
sg645
S'205'
p1233
sg647
NsbsS'231'
p1234
g0
(g629
g2
Ntp1235
Rp1236
(dp1237
g633
I1
sg634
g1234
sg635
Nsg262
F0.6095999999999999
sg268
Nsg636
I1
sg637
S'201'
p1238
sg639
Nsg640
F141.0
sg641
F192.024
sg642
F0.0
sg643
Nsg644
I00
sg645
S'199'
p1239
sg647
NsbsS'233'
p1240
g0
(g629
g2
Ntp1241
Rp1242
(dp1243
g633
I1
sg634
g1240
sg635
Nsg262
F0.6095999999999999
sg268
Nsg636
I1
sg637
S'203'
p1244
sg639
Nsg640
F130.0
sg641
F36.576
sg642
F0.0
sg643
Nsg644
I00
sg645
S'201'
p1245
sg647
NsbsS'40'
p1246
g0
(g629
g2
Ntp1247
Rp1248
(dp1249
g633
I1
sg634
g1246
sg635
Nsg262
F2.5145999999999997
sg268
Nsg636
I1
sg637
S'40'
p1250
sg639
Nsg640
F199.0
sg641
F30.1752
sg642
F0.0
sg643
Nsg644
I00
sg645
g542
sg647
NsbsS'323'
p1251
g0
(g629
g2
Ntp1252
Rp1253
(dp1254
g633
I1
sg634
g1251
sg635
Nsg262
F0.30479999999999996
sg268
Nsg636
I1
sg637
S'275'
p1255
sg639
Nsg640
F130.0
sg641
F91.44
sg642
F0.0
sg643
Nsg644
I00
sg645
S'201'
p1256
sg647
NsbsS'321'
p1257
g0
(g629
g2
Ntp1258
Rp1259
(dp1260
g633
I1
sg634
g1257
sg635
Nsg262
F0.762
sg268
Nsg636
I1
sg637
S'265'
p1261
sg639
Nsg640
F141.0
sg641
F365.76
sg642
F0.0
sg643
Nsg644
I00
sg645
S'163'
p1262
sg647
NsbsS'325'
p1263
g0
(g629
g2
Ntp1264
Rp1265
(dp1266
g633
I1
sg634
g1263
sg635
Nsg262
F0.2032
sg268
Nsg636
I1
sg637
S'271'
p1267
sg639
Nsg640
F130.0
sg641
F393.192
sg642
F0.0
sg643
Nsg644
I00
sg645
S'269'
p1268
sg647
NsbsS'329'
p1269
g0
(g629
g2
Ntp1270
Rp1271
(dp1272
g633
I1
sg634
g1269
sg635
Nsg262
F0.762
sg268
Nsg636
I1
sg637
S'123'
p1273
sg639
Nsg640
F140.0
sg641
F13868.400000000001
sg642
F0.0
sg643
Nsg644
I00
sg645
S'61'
p1274
sg647
NsbsS'201'
p1275
g0
(g629
g2
Ntp1276
Rp1277
(dp1278
g633
I1
sg634
g1275
sg635
Nsg262
F0.30479999999999996
sg268
Nsg636
I1
sg637
S'179'
p1279
sg639
Nsg640
F130.0
sg641
F362.71200000000005
sg642
F0.0
sg643
Nsg644
I00
sg645
S'40'
p1280
sg647
NsbsS'147'
p1281
g0
(g629
g2
Ntp1282
Rp1283
(dp1284
g633
I1
sg634
g1281
sg635
Nsg262
F0.2032
sg268
Nsg636
I1
sg637
S'141'
p1285
sg639
Nsg640
F130.0
sg641
F624.84
sg642
F0.0
sg643
Nsg644
I00
sg645
S'139'
p1286
sg647
NsbsS'203'
p1287
g0
(g629
g2
Ntp1288
Rp1289
(dp1290
g633
I1
sg634
g1287
sg635
Nsg262
F0.2032
sg268
Nsg636
I1
sg637
S'185'
p1291
sg639
Nsg640
F130.0
sg641
F155.448
sg642
F0.0
sg643
Nsg644
I00
sg645
S'183'
p1292
sg647
NsbsS'202'
p1293
g0
(g629
g2
Ntp1294
Rp1295
(dp1296
g633
I1
sg634
g1293
sg635
Nsg262
F0.2032
sg268
Nsg636
I1
sg637
S'184'
p1297
sg639
Nsg640
F130.0
sg641
F30.449520000000003
sg642
F0.0
sg643
Nsg644
I00
sg645
S'185'
p1298
sg647
NsbsS'205'
p1299
g0
(g629
g2
Ntp1300
Rp1301
(dp1302
g633
I1
sg634
g1299
sg635
Nsg262
F0.30479999999999996
sg268
Nsg636
I1
sg637
S'185'
p1303
sg639
Nsg640
F130.0
sg641
F403.86
sg642
F0.0
sg643
Nsg644
I00
sg645
S'204'
p1304
sg647
NsbsS'204'
p1305
g0
(g629
g2
Ntp1306
Rp1307
(dp1308
g633
I1
sg634
g1305
sg635
Nsg262
F0.30479999999999996
sg268
Nsg636
I1
sg637
S'205'
p1309
sg639
Nsg640
F130.0
sg641
F1380.7440000000001
sg642
F0.0
sg643
Nsg644
I00
sg645
S'184'
p1310
sg647
NsbsS'207'
p1311
g0
(g629
g2
Ntp1312
Rp1313
(dp1314
g633
I1
sg634
g1311
sg635
Nsg262
F0.30479999999999996
sg268
Nsg636
I1
sg637
S'183'
p1315
sg639
Nsg640
F130.0
sg641
F411.48
sg642
F0.0
sg643
Nsg644
I00
sg645
S'189'
p1316
sg647
NsbsS'209'
p1317
g0
(g629
g2
Ntp1318
Rp1319
(dp1320
g633
I1
sg634
g1317
sg635
Nsg262
F0.2032
sg268
Nsg636
I1
sg637
S'187'
p1321
sg639
Nsg640
F130.0
sg641
F152.4
sg642
F0.0
sg643
Nsg644
I00
sg645
S'189'
p1322
sg647
NsbsS'149'
p1323
g0
(g629
g2
Ntp1324
Rp1325
(dp1326
g633
I1
sg634
g1323
sg635
Nsg262
F0.2032
sg268
Nsg636
I1
sg637
S'141'
p1327
sg639
Nsg640
F130.0
sg641
F426.72
sg642
F0.0
sg643
Nsg644
I00
sg645
S'143'
p1328
sg647
NsbsS'263'
p1329
g0
(g629
g2
Ntp1330
Rp1331
(dp1332
g633
I1
sg634
g1329
sg635
Nsg262
F0.30479999999999996
sg268
Nsg636
I1
sg637
S'231'
p1333
sg639
Nsg640
F130.0
sg641
F597.408
sg642
F0.0
sg643
Nsg644
I00
sg645
S'229'
p1334
sg647
NsbsS'261'
p1335
g0
(g629
g2
Ntp1336
Rp1337
(dp1338
g633
I1
sg634
g1335
sg635
Nsg262
F0.2032
sg268
Nsg636
I1
sg637
S'229'
p1339
sg639
Nsg640
F130.0
sg641
F670.5600000000001
sg642
F0.0
sg643
Nsg644
I00
sg645
S'213'
p1340
sg647
NsbssS'_curves'
p1341
(dp1342
g542
g0
(cwntr.network.WaterNetworkModel
Curve
p1343
g2
Ntp1344
Rp1345
(dp1346
S'num_points'
p1347
I3
sS'points'
p1348
(lp1349
(F0.0
F31.6992
tp1350
a(F0.1261803928
F28.041600000000003
tp1351
a(F0.2523607856
F19.2024
tp1352
asS'name'
p1353
g542
sS'curve_type'
p1354
S'HEAD'
p1355
sbsg122
g0
(g1343
g2
Ntp1356
Rp1357
(dp1358
g1347
I3
sg1348
(lp1359
(F0.0
F60.96
tp1360
a(F0.5047215712
F42.062400000000004
tp1361
a(F0.8832627496000001
F26.2128
tp1362
asg1353
g122
sg1354
g1355
sbssS'_patterns'
p1363
(dp1364
g542
(lp1365
F1.34
aF1.94
aF1.46
aF1.44
aF0.76
aF0.92
aF0.85
aF1.07
aF0.96
aF1.1
aF1.08
aF1.19
aF1.16
aF1.08
aF0.96
aF0.83
aF0.79
aF0.74
aF0.64
aF0.64
aF0.85
aF0.96
aF1.24
aF1.67
asg257
(lp1366
F620.0
aF620.0
aF620.0
aF620.0
aF620.0
aF360.0
aF360.0
aF0.0
aF0.0
aF0.0
aF0.0
aF360.0
aF360.0
aF360.0
aF360.0
aF360.0
aF0.0
aF0.0
aF0.0
aF0.0
aF0.0
aF0.0
aF360.0
aF360.0
asg122
(lp1367
F0.0
aF0.0
aF0.0
aF0.0
aF0.0
aF1219.0
aF0.0
aF0.0
aF0.0
aF1866.0
aF1836.0
aF1818.0
aF1818.0
aF1822.0
aF1822.0
aF1817.0
aF1824.0
aF1816.0
aF1833.0
aF1817.0
aF1830.0
aF1814.0
aF1840.0
aF1859.0
asg564
(lp1368
F4439.0
aF4531.0
aF4511.0
aF4582.0
aF4531.0
aF4582.0
aF4572.0
aF4613.0
aF4643.0
aF4643.0
aF4592.0
aF4613.0
aF4531.0
aF4521.0
aF4449.0
aF4439.0
aF4449.0
aF4460.0
aF4439.0
aF4419.0
aF4368.0
aF4399.0
aF4470.0
aF4480.0
asg329
(lp1369
F1637.0
aF1706.0
aF1719.0
aF1719.0
aF1791.0
aF1819.0
aF1777.0
aF1842.0
aF1815.0
aF1825.0
aF1856.0
aF1801.0
aF1819.0
aF1733.0
aF1664.0
aF1620.0
aF1613.0
aF1620.0
aF1616.0
aF1647.0
aF1627.0
aF1627.0
aF1671.0
aF1668.0
assS'_num_junctions'
p1370
I92
sS'sim_time'
p1371
F0.0
sS'_links'
p1372
(dp1373
g628
g631
sg648
g650
sg654
g656
sg660
g662
sg666
g668
sg672
g674
sg678
g680
sg684
g686
sg690
g692
sg696
g698
sg701
g703
sg707
g709
sg713
g715
sg719
g721
sg725
g727
sg731
g733
sg737
g739
sg743
g745
sg749
g751
sg755
g757
sg761
g763
sg767
g769
sg773
g775
sg778
g780
sg784
g786
sg790
g792
sg796
g798
sg802
g804
sg808
g810
sg814
g816
sg820
g822
sg826
g828
sg832
g834
sg838
g840
sg844
g846
sg850
g852
sg856
g858
sg862
g864
sg868
g870
sg874
g876
sg880
g882
sg886
g888
sg892
g894
sg898
g900
sg904
g906
sg910
g912
sg916
g918
sg922
g924
sg928
g930
sg934
g936
sg940
g942
sg946
g948
sg952
g954
sg958
g960
sg964
g966
sg970
g972
sg976
g978
sg982
g984
sg988
g990
sg994
g996
sS'335'
p1374
g0
(cwntr.network.WaterNetworkModel
Pump
p1375
g2
Ntp1376
Rp1377
(dp1378
g633
I1
sg634
g1374
sg635
NsS'power'
p1379
Nsg636
I1
sS'curve'
p1380
g1357
sg637
S'61'
p1381
sg639
NsS'_prev_power_outage'
p1382
I00
sS'_base_power'
p1383
NsS'info_type'
p1384
S'HEAD'
p1385
sS'_power_outage'
p1386
I00
sS'prev_speed'
p1387
NsS'_cv_status'
p1388
I1
sS'speed'
p1389
F1.0
sg645
S'60'
p1390
sg647
Nsbsg1000
g1002
sg1006
g1008
sg1012
g1014
sg1018
g1020
sg1024
g1026
sg1030
g1032
sg1036
g1038
sg1042
g1044
sg1048
g1050
sg1054
g1056
sg1060
g1062
sg1066
g1068
sg1072
g1074
sg1078
g1080
sg1084
g1086
sg1090
g1092
sg1096
g1098
sg1102
g1104
sg1108
g1110
sg1114
g1116
sg1120
g1122
sg1126
g1128
sg1132
g1134
sg1138
g1140
sg1144
g1146
sg1150
g1152
sg1156
g1158
sg1162
g1164
sS'10'
p1391
g0
(g1375
g2
Ntp1392
Rp1393
(dp1394
g633
I0
sg634
g1391
sg635
Nsg1379
Nsg636
I0
sg1380
g1345
sg637
S'10'
p1395
sg639
Nsg1382
I00
sg1383
Nsg1384
S'HEAD'
p1396
sg1386
I00
sg1387
Nsg1388
I1
sg1389
F1.0
sg645
S'Lake'
p1397
sg647
Nsbsg1168
g1170
sg1174
g1176
sg1180
g1182
sg1186
g1188
sg1192
g1194
sg1198
g1200
sg1204
g1206
sg1210
g1212
sg1216
g1218
sg1222
g1224
sg1228
g1230
sg1234
g1236
sg1240
g1242
sg1246
g1248
sg1251
g1253
sg1257
g1259
sg1263
g1265
sg1269
g1271
sg1275
g1277
sg1281
g1283
sg1287
g1289
sg1293
g1295
sg1299
g1301
sg1305
g1307
sg1311
g1313
sg1317
g1319
sg1323
g1325
sg1329
g1331
sg1335
g1337
ssS'_num_pumps'
p1398
I2
sS'_Qtol'
p1399
F2.8e-05
sS'_Htol'
p1400
F0.00015
sS'_check_valves'
p1401
(lp1402
sS'_num_valves'
p1403
I0
sS'_tanks'
p1404
(dp1405
g542
g544
sg257
g260
sg122
g616
ssS'_junctions'
p1406
(dp1407
g32
g35
sg52
g54
sg58
g60
sg64
g66
sg70
g72
sg76
g78
sg82
g84
sg88
g90
sg94
g96
sg100
g102
sg106
g108
sg112
g114
sg118
g120
sg125
g127
sg131
g133
sg137
g139
sg143
g145
sg149
g151
sg155
g157
sg161
g163
sg167
g169
sg173
g175
sg179
g181
sg185
g187
sg191
g193
sg197
g199
sg203
g205
sg209
g211
sg215
g217
sg221
g223
sg227
g229
sg233
g235
sg239
g241
sg245
g247
sg251
g253
sg271
g273
sg277
g279
sg283
g285
sg289
g291
sg295
g297
sg301
g303
sg307
g309
sg313
g315
sg319
g321
sg325
g327
sg332
g334
sg338
g340
sg344
g346
sg350
g352
sg356
g358
sg362
g364
sg368
g370
sg374
g376
sg380
g382
sg386
g388
sg392
g394
sg398
g400
sg404
g406
sg410
g412
sg416
g418
sg422
g424
sg428
g430
sg434
g436
sg440
g442
sg446
g448
sg452
g454
sg458
g460
sg464
g466
sg470
g472
sg476
g478
sg482
g484
sg488
g490
sg494
g496
sg500
g502
sg506
g508
sg512
g514
sg518
g520
sg524
g526
sg530
g532
sg536
g538
sg548
g550
sg554
g556
sg560
g562
sg567
g569
sg573
g575
sg579
g581
sg585
g587
sg591
g593
sg597
g599
sg603
g605
sg609
g611
sg620
g622
ssS'_graph'
p1408
g0
(cwntr.network.WntrMultiDiGraph
WntrMultiDiGraph
p1409
g2
Ntp1410
Rp1411
(dp1412
S'node'
p1413
(dp1414
g32
(dp1415
S'type'
p1416
S'junction'
p1417
sS'pos'
p1418
(F42.11
F8.67
tp1419
ssg52
(dp1420
g1416
g1417
sg1418
(F39.95
F8.73
tp1421
ssg58
(dp1422
g1416
g1417
sg1418
(F35.26
F6.16
tp1423
ssg64
(dp1424
g1416
g1417
sg1418
(F34.2
F5.54
tp1425
ssg70
(dp1426
g1416
g1417
sg1418
(F44.86
F9.32
tp1427
ssg76
(dp1428
g1416
g1417
sg1418
(F37.89
F29.55
tp1429
ssg82
(dp1430
g1416
g1417
sg1418
(F33.28
F24.54
tp1431
ssg88
(dp1432
g1416
g1417
sg1418
(F26.48
F15.13
tp1433
ssg94
(dp1434
g1416
g1417
sg1418
(F29.44
F26.91
tp1435
ssg100
(dp1436
g1416
g1417
sg1418
(F22.08
F23.1
tp1437
ssg106
(dp1438
g1416
g1417
sg1418
(F23.54
F25.5
tp1439
ssg112
(dp1440
g1416
g1417
sg1418
(F20.79
F21.45
tp1441
ssg118
(dp1442
g1416
g1417
sg1418
(F23.37
F27.31
tp1443
ssg125
(dp1444
g1416
g1417
sg1418
(F23.38
F12.95
tp1445
ssg131
(dp1446
g1416
g1417
sg1418
(F24.59
F25.64
tp1447
ssg137
(dp1448
g1416
g1417
sg1418
(F25.39
F13.6
tp1449
ssg143
(dp1450
g1416
g1417
sg1418
(F29.29
F26.4
tp1451
ssg149
(dp1452
g1416
g1417
sg1418
(F30.32
F26.39
tp1453
ssg155
(dp1454
g1416
g1417
sg1418
(F25.03
F12.14
tp1455
ssg9
(dp1456
g1416
S'reservoir'
p1457
sg1418
(F24.15
F31.06
tp1458
ssg161
(dp1459
g1416
g1417
sg1418
(F33.01
F3.01
tp1460
ssg167
(dp1461
g1416
g1417
sg1418
(F29.42
F8.44
tp1462
ssg173
(dp1463
g1416
g1417
sg1418
(F23.18
F14.72
tp1464
ssg179
(dp1465
g1416
g1417
sg1418
(F20.97
F15.18
tp1466
ssg185
(dp1467
g1416
g1417
sg1418
(F22.1
F14.07
tp1468
ssg191
(dp1469
g1416
g1417
sg1418
(F22.88
F14.35
tp1470
ssg197
(dp1471
g1416
g1417
sg1418
(F20.98
F19.18
tp1472
ssg203
(dp1473
g1416
g1417
sg1418
(F25.97
F11.0
tp1474
ssg209
(dp1475
g1416
g1417
sg1418
(F21.69
F21.28
tp1476
ssg215
(dp1477
g1416
g1417
sg1418
(F29.16
F7.38
tp1478
ssg221
(dp1479
g1416
g1417
sg1418
(F20.21
F17.53
tp1480
ssg227
(dp1481
g1416
g1417
sg1418
(F31.07
F8.29
tp1482
ssg233
(dp1483
g1416
g1417
sg1418
(F22.04
F16.61
tp1484
ssg239
(dp1485
g1416
g1417
sg1418
(F23.7
F22.76
tp1486
ssg245
(dp1487
g1416
g1417
sg1418
(F37.47
F21.97
tp1488
ssg251
(dp1489
g1416
g1417
sg1418
(F35.68
F23.08
tp1490
ssg257
(dp1491
g1416
S'tank'
p1492
sg1418
(F29.41
F27.27
tp1493
ssg271
(dp1494
g1416
g1417
sg1418
(F35.02
F2.05
tp1495
ssg277
(dp1496
g1416
g1417
sg1418
(F17.64
F18.92
tp1497
ssg283
(dp1498
g1416
g1417
sg1418
(F35.87
F2.11
tp1499
ssg289
(dp1500
g1416
g1417
sg1418
(F37.04
F0.0
tp1501
ssg295
(dp1502
g1416
g1417
sg1418
(F12.96
F21.31
tp1503
ssg301
(dp1504
g1416
g1417
sg1418
(F13.81
F22.94
tp1505
ssg307
(dp1506
g1416
g1417
sg1418
(F35.02
F1.81
tp1507
ssg313
(dp1508
g1416
g1417
sg1418
(F18.45
F20.46
tp1509
ssg319
(dp1510
g1416
g1417
sg1418
(F16.97
F21.28
tp1511
ssg325
(dp1512
g1416
g1417
sg1418
(F25.46
F10.52
tp1513
ssg332
(dp1514
g1416
g1417
sg1418
(F23.9
F29.94
tp1515
ssg338
(dp1516
g1416
g1417
sg1418
(F23.71
F29.03
tp1517
ssg344
(dp1518
g1416
g1417
sg1418
(F20.8
F23.4
tp1519
ssg350
(dp1520
g1416
g1417
sg1418
(F25.71
F10.4
tp1521
ssg356
(dp1522
g1416
g1417
sg1418
(F25.71
F10.57
tp1523
ssg362
(dp1524
g1416
g1417
sg1418
(F32.17
F1.88
tp1525
ssg368
(dp1526
g1416
g1417
sg1418
(F34.15
F1.1
tp1527
ssg374
(dp1528
g1416
g1417
sg1418
(F26.87
F11.59
tp1529
ssg380
(dp1530
g1416
g1417
sg1418
(F21.17
F23.32
tp1531
ssg386
(dp1532
g1416
g1417
sg1418
(F26.65
F11.8
tp1533
ssg392
(dp1534
g1416
g1417
sg1418
(F33.51
F2.45
tp1535
ssg398
(dp1536
g1416
g1417
sg1418
(F25.45
F10.18
tp1537
ssg404
(dp1538
g1416
g1417
sg1418
(F25.72
F10.74
tp1539
ssg410
(dp1540
g1416
g1417
sg1418
(F23.64
F11.04
tp1541
ssg416
(dp1542
g1416
g1417
sg1418
(F25.15
F9.52
tp1543
ssg422
(dp1544
g1416
g1417
sg1418
(F25.01
F9.67
tp1545
ssg428
(dp1546
g1416
g1417
sg1418
(F24.15
F11.37
tp1547
ssg434
(dp1548
g1416
g1417
sg1418
(F25.68
F12.74
tp1549
ssg440
(dp1550
g1416
g1417
sg1418
(F36.16
F3.49
tp1551
ssg446
(dp1552
g1416
g1417
sg1418
(F25.98
F15.14
tp1553
ssg452
(dp1554
g1416
g1417
sg1418
(F43.53
F7.38
tp1555
ssg458
(dp1556
g1416
g1417
sg1418
(F25.88
F12.98
tp1557
ssg464
(dp1558
g1416
g1417
sg1418
(F25.1
F15.28
tp1559
ssg470
(dp1560
g1416
g1417
sg1418
(F25.39
F14.98
tp1561
ssg476
(dp1562
g1416
g1417
sg1418
(F9.0
F27.85
tp1563
ssg482
(dp1564
g1416
g1417
sg1418
(F38.68
F23.76
tp1565
ssg488
(dp1566
g1416
g1417
sg1418
(F28.29
F21.39
tp1567
ssg494
(dp1568
g1416
g1417
sg1418
(F28.13
F22.63
tp1569
ssg500
(dp1570
g1416
g1417
sg1418
(F23.0
F29.49
tp1571
ssg506
(dp1572
g1416
g1417
sg1418
(F24.85
F20.16
tp1573
ssg512
(dp1574
g1416
g1417
sg1418
(F23.12
F17.5
tp1575
ssg23
(dp1576
g1416
g1457
sg1418
(F8.0
F27.53
tp1577
ssg518
(dp1578
g1416
g1417
sg1418
(F35.76
F2.31
tp1579
ssg524
(dp1580
g1416
g1417
sg1418
(F35.37
F3.08
tp1581
ssg530
(dp1582
g1416
g1417
sg1418
(F38.38
F2.54
tp1583
ssg536
(dp1584
g1416
g1417
sg1418
(F27.02
F9.81
tp1585
ssg542
(dp1586
g1416
g1492
sg1418
(F27.46
F9.84
tp1587
ssg548
(dp1588
g1416
g1417
sg1418
(F30.89
F8.57
tp1589
ssg554
(dp1590
g1416
g1417
sg1418
(F30.24
F20.38
tp1591
ssg560
(dp1592
g1416
g1417
sg1418
(F31.14
F8.89
tp1593
ssg567
(dp1594
g1416
g1417
sg1418
(F33.02
F19.29
tp1595
ssg573
(dp1596
g1416
g1417
sg1418
(F29.2
F6.46
tp1597
ssg579
(dp1598
g1416
g1417
sg1418
(F23.8
F10.9
tp1599
ssg585
(dp1600
g1416
g1417
sg1418
(F31.0
F6.61
tp1601
ssg591
(dp1602
g1416
g1417
sg1418
(F31.66
F6.64
tp1603
ssg597
(dp1604
g1416
g1417
sg1418
(F33.76
F6.59
tp1605
ssg603
(dp1606
g1416
g1417
sg1418
(F32.54
F6.81
tp1607
ssg609
(dp1608
g1416
g1417
sg1418
(F29.62
F20.74
tp1609
ssg122
(dp1610
g1416
g1492
sg1418
(F32.99
F3.45
tp1611
ssg620
(dp1612
g1416
g1417
sg1418
(F20.32
F21.57
tp1613
sssS'edge_key_dict_factory'
p1614
c__builtin__
dict
p1615
sS'node_dict_factory'
p1616
g1615
sS'edge_attr_dict_factory'
p1617
g1615
sS'succ'
p1618
(dp1619
g32
(dp1620
g1052
(dp1621
g1048
(dp1622
g1416
S'pipe'
p1623
sssg1040
(dp1624
g1036
(dp1625
g1416
g1623
ssssg52
(dp1626
g986
(dp1627
g982
(dp1628
g1416
g1623
ssssg58
(dp1629
g944
(dp1630
g940
(dp1631
g1416
g1623
sssg1339
(dp1632
g1335
(dp1633
g1416
g1623
ssssg64
(dp1634
g771
(dp1635
g767
(dp1636
g1416
g1623
sssg938
(dp1637
g934
(dp1638
g1416
g1623
ssssg70
(dp1639
sg76
(dp1640
sg82
(dp1641
g1285
(dp1642
g1281
(dp1643
g1416
g1623
ssssg88
(dp1644
sg94
(dp1645
g676
(dp1646
g672
(dp1647
g1416
g1623
ssssg100
(dp1648
g741
(dp1649
g737
(dp1650
g1416
g1623
sssg788
(dp1651
g784
(dp1652
g1416
g1623
ssssg106
(dp1653
g747
(dp1654
g743
(dp1655
g1416
g1623
sssg753
(dp1656
g749
(dp1657
g1416
g1623
sssg765
(dp1658
g761
(dp1659
g1416
g1623
ssssg112
(dp1660
g932
(dp1661
g928
(dp1662
g1416
g1623
ssssg118
(dp1663
g759
(dp1664
g755
(dp1665
g1416
g1623
ssssg125
(dp1666
g652
(dp1667
g648
(dp1668
g1416
g1623
ssssg131
(dp1669
g1130
(dp1670
g1126
(dp1671
g1416
g1623
sssg682
(dp1672
g678
(dp1673
g1416
g1623
ssssg137
(dp1674
g908
(dp1675
g904
(dp1676
g1416
g1623
sssg1070
(dp1677
g1066
(dp1678
g1416
g1623
ssssg143
(dp1679
g694
(dp1680
g690
(dp1681
g1416
g1623
ssssg149
(dp1682
g688
(dp1683
g684
(dp1684
g1416
g1623
sssg1064
(dp1685
g1060
(dp1686
g1416
g1623
ssssg155
(dp1687
g1267
(dp1688
g1263
(dp1689
g1416
g1623
sssg896
(dp1690
g892
(dp1691
g1416
g1623
ssssg9
(dp1692
g1016
(dp1693
g1012
(dp1694
g1416
g1623
ssssg161
(dp1695
g705
(dp1696
g701
(dp1697
g1416
g1623
ssssg167
(dp1698
g1238
(dp1699
g1234
(dp1700
g1416
g1623
sssg1226
(dp1701
g1222
(dp1702
g1416
g1623
ssssg173
(dp1703
sg179
(dp1704
g1148
(dp1705
g1144
(dp1706
g1416
g1623
ssssg185
(dp1707
g658
(dp1708
g654
(dp1709
g1416
g1623
sssg638
(dp1710
g628
(dp1711
g1416
g1623
ssssg191
(dp1712
g670
(dp1713
g666
(dp1714
g1416
g1623
sssg1112
(dp1715
g1108
(dp1716
g1416
g1623
ssssg197
(dp1717
g902
(dp1718
g898
(dp1719
g1416
g1623
sssg890
(dp1720
g886
(dp1721
g1416
g1623
sssg854
(dp1722
g850
(dp1723
g1416
g1623
ssssg203
(dp1724
g836
(dp1725
g832
(dp1726
g1416
g1623
ssssg209
(dp1727
g926
(dp1728
g922
(dp1729
g1416
g1623
ssssg215
(dp1730
g812
(dp1731
g808
(dp1732
g1416
g1623
sssg1118
(dp1733
g1114
(dp1734
g1416
g1623
ssssg221
(dp1735
g1142
(dp1736
g1138
(dp1737
g1416
g1623
sssg884
(dp1738
g880
(dp1739
g1416
g1623
ssssg227
(dp1740
g1220
(dp1741
g1216
(dp1742
g1416
g1623
ssssg233
(dp1743
g866
(dp1744
g862
(dp1745
g1416
g1623
ssssg239
(dp1746
g735
(dp1747
g731
(dp1748
g1416
g1623
sssg1058
(dp1749
g1054
(dp1750
g1416
g1623
sssg1046
(dp1751
g1042
(dp1752
g1416
g1623
ssssg245
(dp1753
g1327
(dp1754
g1323
(dp1755
g1416
g1623
ssssg251
(dp1756
sg257
(dp1757
g700
(dp1758
g696
(dp1759
g1416
g1623
ssssg271
(dp1760
g723
(dp1761
g719
(dp1762
g1416
g1623
sssg729
(dp1763
g725
(dp1764
g1416
g1623
ssssg277
(dp1765
g872
(dp1766
g868
(dp1767
g1416
g1623
ssssg283
(dp1768
g711
(dp1769
g707
(dp1770
g1416
g1623
sssg1208
(dp1771
g1204
(dp1772
g1416
g1623
ssssg289
(dp1773
sg295
(dp1774
g950
(dp1775
g946
(dp1776
g1416
g1623
ssssg301
(dp1777
g974
(dp1778
g970
(dp1779
g1416
g1623
sssg998
(dp1780
g994
(dp1781
g1416
g1623
ssssg307
(dp1782
g794
(dp1783
g790
(dp1784
g1416
g1623
ssssg313
(dp1785
g848
(dp1786
g844
(dp1787
g1416
g1623
ssssg319
(dp1788
g992
(dp1789
g988
(dp1790
g1416
g1623
ssssg325
(dp1791
g842
(dp1792
g838
(dp1793
g1416
g1623
ssssg332
(dp1794
g1381
(dp1795
g1374
(dp1796
g1416
S'pump'
p1797
sssg1004
(dp1798
g1000
(dp1799
g1416
g1623
ssssg338
(dp1800
g1273
(dp1801
g1269
(dp1802
g1416
g1623
ssssg344
(dp1803
g914
(dp1804
g910
(dp1805
g1416
g1623
ssssg350
(dp1806
g818
(dp1807
g814
(dp1808
g1416
g1623
ssssg356
(dp1809
g830
(dp1810
g826
(dp1811
g1416
g1623
ssssg362
(dp1812
sg368
(dp1813
sg374
(dp1814
g1136
(dp1815
g1132
(dp1816
g1416
g1623
ssssg380
(dp1817
g920
(dp1818
g916
(dp1819
g1416
g1623
sssg782
(dp1820
g778
(dp1821
g1416
g1623
ssssg386
(dp1822
g1106
(dp1823
g1102
(dp1824
g1416
g1623
ssssg392
(dp1825
g806
(dp1826
g802
(dp1827
g1416
g1623
sssg800
(dp1828
g796
(dp1829
g1416
g1623
ssssg398
(dp1830
g1291
(dp1831
g1287
(dp1832
g1416
g1623
ssssg404
(dp1833
g824
(dp1834
g820
(dp1835
g1416
g1623
sssg1124
(dp1836
g1120
(dp1837
g1416
g1623
ssssg410
(dp1838
g1088
(dp1839
g1084
(dp1840
g1416
g1623
ssssg416
(dp1841
g1309
(dp1842
g1305
(dp1843
g1416
g1623
ssssg422
(dp1844
g1297
(dp1845
g1293
(dp1846
g1416
g1623
ssssg428
(dp1847
g1315
(dp1848
g1311
(dp1849
g1416
g1623
sssg1321
(dp1850
g1317
(dp1851
g1416
g1623
ssssg434
(dp1852
g664
(dp1853
g660
(dp1854
g1416
g1623
sssg1094
(dp1855
g1090
(dp1856
g1416
g1623
ssssg440
(dp1857
g1333
(dp1858
g1329
(dp1859
g1416
g1623
ssssg446
(dp1860
g1082
(dp1861
g1078
(dp1862
g1416
g1623
ssssg452
(dp1863
sg458
(dp1864
g1100
(dp1865
g1096
(dp1866
g1416
g1623
ssssg464
(dp1867
g1160
(dp1868
g1156
(dp1869
g1416
g1623
sssg1022
(dp1870
g1018
(dp1871
g1416
g1623
ssssg470
(dp1872
g1076
(dp1873
g1072
(dp1874
g1416
g1623
sssg1261
(dp1875
g1257
(dp1876
g1416
g1623
ssssg476
(dp1877
g980
(dp1878
g976
(dp1879
g1416
g1623
ssssg482
(dp1880
g1184
(dp1881
g1180
(dp1882
g1416
g1623
ssssg488
(dp1883
g1166
(dp1884
g1162
(dp1885
g1416
g1623
ssssg494
(dp1886
sg500
(dp1887
g1010
(dp1888
g1006
(dp1889
g1416
g1623
ssssg506
(dp1890
g1034
(dp1891
g1030
(dp1892
g1416
g1623
ssssg512
(dp1893
g1028
(dp1894
g1024
(dp1895
g1416
g1623
ssssg23
(dp1896
g1395
(dp1897
g1391
(dp1898
g1416
g1797
ssssg518
(dp1899
g717
(dp1900
g713
(dp1901
g1416
g1623
sssg878
(dp1902
g874
(dp1903
g1416
g1623
ssssg524
(dp1904
g1178
(dp1905
g1174
(dp1906
g1416
g1623
sssg1172
(dp1907
g1168
(dp1908
g1416
g1623
ssssg530
(dp1909
sg536
(dp1910
g1279
(dp1911
g1275
(dp1912
g1416
g1623
ssssg542
(dp1913
g1250
(dp1914
g1246
(dp1915
g1416
g1623
ssssg548
(dp1916
g1244
(dp1917
g1240
(dp1918
g1416
g1623
sssg1255
(dp1919
g1251
(dp1920
g1416
g1623
ssssg554
(dp1921
g1196
(dp1922
g1192
(dp1923
g1416
g1623
sssg1202
(dp1924
g1198
(dp1925
g1416
g1623
ssssg560
(dp1926
sg567
(dp1927
g1190
(dp1928
g1186
(dp1929
g1416
g1623
ssssg573
(dp1930
g1232
(dp1931
g1228
(dp1932
g1416
g1623
ssssg579
(dp1933
g1303
(dp1934
g1299
(dp1935
g1416
g1623
ssssg585
(dp1936
g1214
(dp1937
g1210
(dp1938
g1416
g1623
ssssg591
(dp1939
g962
(dp1940
g958
(dp1941
g1416
g1623
ssssg597
(dp1942
g968
(dp1943
g964
(dp1944
g1416
g1623
ssssg603
(dp1945
g956
(dp1946
g952
(dp1947
g1416
g1623
ssssg609
(dp1948
g1154
(dp1949
g1150
(dp1950
g1416
g1623
ssssg122
(dp1951
g777
(dp1952
g773
(dp1953
g1416
g1623
ssssg620
(dp1954
g860
(dp1955
g856
(dp1956
g1416
g1623
sssssS'edge'
p1957
g1619
sS'graph'
p1958
(dp1959
sS'adjlist_dict_factory'
p1960
g1615
sS'adj'
p1961
g1619
sS'pred'
p1962
(dp1963
g32
(dp1964
g987
g1627
ssg52
(dp1965
g945
g1630
ssg58
(dp1966
g939
g1637
ssg64
(dp1967
g969
g1943
ssg70
(dp1968
g1041
g1624
ssg76
(dp1969
g689
g1683
ssg82
(dp1970
g1065
g1685
ssg88
(dp1971
g1083
g1861
ssg94
(dp1972
g257
g1758
ssg100
(dp1973
g748
g1654
sg736
g1747
ssg106
(dp1974
g760
g1664
ssg112
(dp1975
g927
g1728
sg921
g1818
ssg118
(dp1976
g1274
g1801
ssg125
(dp1977
g1113
g1715
sg909
g1675
ssg131
(dp1978
g766
g1658
ssg137
(dp1979
g1262
g1875
ssg143
(dp1980
g677
g1646
sg683
g1672
ssg149
(dp1981
g695
g1680
ssg155
(dp1982
g665
g1853
ssg9
(dp1983
sg161
(dp1984
g122
g1952
ssg167
(dp1985
g1137
g1815
ssg173
(dp1986
g1161
g1868
sg671
g1713
ssg179
(dp1987
g1143
g1736
ssg185
(dp1988
g1149
g1705
ssg191
(dp1989
g646
g1710
sg867
g1744
ssg197
(dp1990
g849
g1786
ssg203
(dp1991
g1268
g1688
sg1125
g1836
ssg209
(dp1992
g903
g1718
sg742
g1649
ssg215
(dp1993
g1227
g1701
ssg221
(dp1994
g891
g1720
sg873
g1766
ssg227
(dp1995
g1256
g1919
sg1119
g1733
ssg233
(dp1996
g855
g1722
sg885
g1738
ssg239
(dp1997
g754
g1656
ssg245
(dp1998
g1185
g1881
ssg251
(dp1999
g1286
g1642
sg1191
g1928
sg1328
g1754
ssg257
(dp2000
sg271
(dp2001
g712
g1769
ssg277
(dp2002
g951
g1775
ssg283
(dp2003
g879
g1902
ssg289
(dp2004
g1209
g1771
ssg295
(dp2005
g975
g1778
ssg301
(dp2006
g981
g1878
ssg307
(dp2007
g724
g1761
sg718
g1900
ssg313
(dp2008
g993
g1789
ssg319
(dp2009
g861
g1955
sg999
g1780
ssg325
(dp2010
sg332
(dp2011
g1017
g1693
ssg338
(dp2012
g1390
g1795
sg1011
g1888
ssg344
(dp2013
g783
g1820
ssg350
(dp2014
g831
g1810
sg1280
g1911
ssg356
(dp2015
g825
g1834
ssg362
(dp2016
g807
g1826
ssg368
(dp2017
g795
g1783
sg801
g1828
ssg374
(dp2018
g1107
g1823
ssg380
(dp2019
g789
g1651
ssg386
(dp2020
g837
g1725
sg1095
g1855
ssg392
(dp2021
g730
g1763
sg706
g1696
ssg398
(dp2022
g1316
g1848
sg819
g1807
ssg404
(dp2023
g843
g1792
ssg410
(dp2024
g1322
g1850
sg659
g1708
ssg416
(dp2025
g1298
g1845
ssg422
(dp2026
g1292
g1831
sg1304
g1934
ssg428
(dp2027
g897
g1690
sg653
g1667
ssg434
(dp2028
g1101
g1865
sg1071
g1677
ssg440
(dp2029
g1173
g1907
sg1340
g1632
ssg446
(dp2030
g1077
g1873
ssg452
(dp2031
g1053
g1621
ssg458
(dp2032
sg464
(dp2033
g1029
g1894
ssg470
(dp2034
g1023
g1870
ssg476
(dp2035
g1397
g1897
ssg482
(dp2036
sg488
(dp2037
g1059
g1749
sg1155
g1949
ssg494
(dp2038
g1167
g1884
sg1131
g1670
ssg500
(dp2039
g1005
g1798
ssg506
(dp2040
g1047
g1751
ssg512
(dp2041
g1035
g1891
ssg23
(dp2042
sg518
(dp2043
g1179
g1905
ssg524
(dp2044
g772
g1635
ssg530
(dp2045
g1334
g1858
ssg536
(dp2046
g542
g1914
ssg542
(dp2047
sg548
(dp2048
g1239
g1699
ssg554
(dp2049
sg560
(dp2050
g1245
g1917
ssg567
(dp2051
g1197
g1922
ssg573
(dp2052
g813
g1731
sg1310
g1842
ssg579
(dp2053
g1089
g1839
ssg585
(dp2054
g1233
g1931
sg1221
g1741
ssg591
(dp2055
g1215
g1937
ssg597
(dp2056
g957
g1946
ssg603
(dp2057
g963
g1940
ssg609
(dp2058
g1203
g1924
ssg122
(dp2059
sg620
(dp2060
g933
g1661
sg915
g1804
sssbsg1353
S'networks/Net3.inp'
p2061
sS'_num_pipes'
p2062
I117
sS'_num_reservoirs'
p2063
I2
sS'_control_dict'
p2064
(dp2065
S'LINK10CLOSEDATTIME226800'
p2066
g0
(cwntr.network.NetworkControls
TimeControl
p2067
g2
Ntp2068
Rp2069
(dp2070
S'_fire_time'
p2071
I226800
sg1353
g2066
sS'_daily_flag'
p2072
I00
sS'_time_flag'
p2073
S'SIM_TIME'
p2074
sS'_control_action'
p2075
g0
(cwntr.network.NetworkControls
ControlAction
p2076
g2
Ntp2077
Rp2078
(dp2079
S'_value'
p2080
I0
sS'_attribute'
p2081
g633
sS'_target_obj_ref'
p2082
g1393
sbsS'_priority'
p2083
I3
sbsS'LINK10OPENATTIME262800'
p2084
g0
(g2067
g2
Ntp2085
Rp2086
(dp2087
g2071
I262800
sg1353
g2084
sg2072
I00
sg2073
g2074
sg2075
g0
(g2076
g2
Ntp2088
Rp2089
(dp2090
g2080
I1
sg2081
g633
sg2082
g1393
sbsg2083
I0
sbsS'LINK10CLOSEDATTIME140400'
p2091
g0
(g2067
g2
Ntp2092
Rp2093
(dp2094
g2071
I140400
sg1353
g2091
sg2072
I00
sg2073
g2074
sg2075
g0
(g2076
g2
Ntp2095
Rp2096
(dp2097
g2080
I0
sg2081
g633
sg2082
g1393
sbsg2083
I3
sbsS'LINK335CLOSEDIFNODE1ABOVE46.02'
p2098
g0
(cwntr.network.NetworkControls
ConditionalControl
p2099
g2
Ntp2100
Rp2101
(dp2102
S'_operation'
p2103
cnumpy.core
_ufunc_reconstruct
p2104
(S'numpy.core'
p2105
S'greater'
p2106
tp2107
Rp2108
sS'_source_attr'
p2109
g15
sg1353
g2098
sg2075
g0
(g2076
g2
Ntp2110
Rp2111
(dp2112
g2080
I0
sg2081
g633
sg2082
g1377
sbsS'_partial_step_for_tanks'
p2113
I01
sg2083
I3
sS'_threshold'
p2114
F46.024800000000006
sS'_source_obj'
p2115
g544
sbsS'LINK10CLOSEDATTIME572400'
p2116
g0
(g2067
g2
Ntp2117
Rp2118
(dp2119
g2071
I572400
sg1353
g2116
sg2072
I00
sg2073
g2074
sg2075
g0
(g2076
g2
Ntp2120
Rp2121
(dp2122
g2080
I0
sg2081
g633
sg2082
g1393
sbsg2083
I3
sbsS'LINK10OPENATTIME90000'
p2123
g0
(g2067
g2
Ntp2124
Rp2125
(dp2126
g2071
I90000
sg1353
g2123
sg2072
I00
sg2073
g2074
sg2075
g0
(g2076
g2
Ntp2127
Rp2128
(dp2129
g2080
I1
sg2081
g633
sg2082
g1393
sbsg2083
I0
sbsS'LINK10OPENATTIME522000'
p2130
g0
(g2067
g2
Ntp2131
Rp2132
(dp2133
g2071
I522000
sg1353
g2130
sg2072
I00
sg2073
g2074
sg2075
g0
(g2076
g2
Ntp2134
Rp2135
(dp2136
g2080
I1
sg2081
g633
sg2082
g1393
sbsg2083
I0
sbsS'LINK10OPENATTIME435600'
p2137
g0
(g2067
g2
Ntp2138
Rp2139
(dp2140
g2071
I435600
sg1353
g2137
sg2072
I00
sg2073
g2074
sg2075
g0
(g2076
g2
Ntp2141
Rp2142
(dp2143
g2080
I1
sg2081
g633
sg2082
g1393
sbsg2083
I0
sbsS'LINK10OPENATTIME349200'
p2144
g0
(g2067
g2
Ntp2145
Rp2146
(dp2147
g2071
I349200
sg1353
g2144
sg2072
I00
sg2073
g2074
sg2075
g0
(g2076
g2
Ntp2148
Rp2149
(dp2150
g2080
I1
sg2081
g633
sg2082
g1393
sbsg2083
I0
sbsS'LINK330CLOSEDIFNODE1BELOW45.42'
p2151
g0
(g2099
g2
Ntp2152
Rp2153
(dp2154
g2103
g2104
(g2105
S'less'
p2155
tp2156
Rp2157
sg2109
g15
sg1353
g2151
sg2075
g0
(g2076
g2
Ntp2158
Rp2159
(dp2160
g2080
I0
sg2081
g633
sg2082
g1002
sbsg2113
I01
sg2083
I3
sg2114
F45.415200000000006
sg2115
g544
sbsS'LINK10OPENATTIME176400'
p2161
g0
(g2067
g2
Ntp2162
Rp2163
(dp2164
g2071
I176400
sg1353
g2161
sg2072
I00
sg2073
g2074
sg2075
g0
(g2076
g2
Ntp2165
Rp2166
(dp2167
g2080
I1
sg2081
g633
sg2082
g1393
sbsg2083
I0
sbsS'LINK10OPENATTIME3600'
p2168
g0
(g2067
g2
Ntp2169
Rp2170
(dp2171
g2071
I3600
sg1353
g2168
sg2072
I00
sg2073
g2074
sg2075
g0
(g2076
g2
Ntp2172
Rp2173
(dp2174
g2080
I1
sg2081
g633
sg2082
g1393
sbsg2083
I0
sbsS'LINK10CLOSEDATTIME486000'
p2175
g0
(g2067
g2
Ntp2176
Rp2177
(dp2178
g2071
I486000
sg1353
g2175
sg2072
I00
sg2073
g2074
sg2075
g0
(g2076
g2
Ntp2179
Rp2180
(dp2181
g2080
I0
sg2081
g633
sg2082
g1393
sbsg2083
I3
sbsS'LINK10CLOSEDATTIME399600'
p2182
g0
(g2067
g2
Ntp2183
Rp2184
(dp2185
g2071
I399600
sg1353
g2182
sg2072
I00
sg2073
g2074
sg2075
g0
(g2076
g2
Ntp2186
Rp2187
(dp2188
g2080
I0
sg2081
g633
sg2082
g1393
sbsg2083
I3
sbsS'LINK10CLOSEDATTIME313200'
p2189
g0
(g2067
g2
Ntp2190
Rp2191
(dp2192
g2071
I313200
sg1353
g2189
sg2072
I00
sg2073
g2074
sg2075
g0
(g2076
g2
Ntp2193
Rp2194
(dp2195
g2080
I0
sg2081
g633
sg2082
g1393
sbsg2083
I3
sbsS'LINK10CLOSEDATTIME54000'
p2196
g0
(g2067
g2
Ntp2197
Rp2198
(dp2199
g2071
I54000
sg1353
g2196
sg2072
I00
sg2073
g2074
sg2075
g0
(g2076
g2
Ntp2200
Rp2201
(dp2202
g2080
I0
sg2081
g633
sg2082
g1393
sbsg2083
I3
sbsS'LINK335OPENIFNODE1BELOW45.42'
p2203
g0
(g2099
g2
Ntp2204
Rp2205
(dp2206
g2103
g2157
sg2109
g15
sg1353
g2203
sg2075
g0
(g2076
g2
Ntp2207
Rp2208
(dp2209
g2080
I1
sg2081
g633
sg2082
g1377
sbsg2113
I01
sg2083
I0
sg2114
F45.415200000000006
sg2115
g544
sbsS'LINK330OPENIFNODE1ABOVE46.02'
p2210
g0
(g2099
g2
Ntp2211
Rp2212
(dp2213
g2103
g2108
sg2109
g15
sg1353
g2210
sg2075
g0
(g2076
g2
Ntp2214
Rp2215
(dp2216
g2080
I1
sg2081
g633
sg2082
g1002
sbsg2113
I01
sg2083
I0
sg2114
F46.024800000000006
sg2115
g544
sbssS'_pumps'
p2217
(dp2218
g1374
g1377
sg1391
g1393
ssS'_inpfile'
p2219
g0
(cwntr.epanet.io
InpFile
p2220
g2
Ntp2221
Rp2222
(dp2223
S'curves'
p2224
(dp2225
g542
(lp2226
(F0.0
F104.0
tp2227
a(F2000.0
F92.0
tp2228
a(F4000.0
F63.0
tp2229
asg122
(lp2230
(F0.0
F200.0
tp2231
a(F8000.0
F138.0
tp2232
a(F14000.0
F86.0
tp2233
assS'top_comments'
p2234
(lp2235
sS'sections'
p2236
(dp2237
S'[PIPES]'
p2238
(lp2239
(I113
S';ID              \tNode1           \tNode2           \tLength      \tDiameter    \tRoughness   \tMinorLoss   \tStatus'
p2240
tp2241
a(I114
S'20              \t3               \t20              \t99          \t99          \t199         \t0           \tOpen  \t;'
p2242
tp2243
a(I115
S'40              \t1               \t40              \t99          \t99          \t199         \t0           \tOpen  \t;'
p2244
tp2245
a(I116
S'50              \t2               \t50              \t99          \t99          \t199         \t0           \tOpen  \t;'
p2246
tp2247
a(I117
S'60              \tRiver           \t60              \t1231        \t24          \t140         \t0           \tOpen  \t;'
p2248
tp2249
a(I118
S'101             \t10              \t101             \t14200       \t18          \t110         \t0           \tOpen  \t;'
p2250
tp2251
a(I119
S'103             \t101             \t103             \t1350        \t16          \t130         \t0           \tOpen  \t;'
p2252
tp2253
a(I120
S'105             \t101             \t105             \t2540        \t12          \t130         \t0           \tOpen  \t;'
p2254
tp2255
a(I121
S'107             \t105             \t107             \t1470        \t12          \t130         \t0           \tOpen  \t;'
p2256
tp2257
a(I122
S'109             \t103             \t109             \t3940        \t16          \t130         \t0           \tOpen  \t;'
p2258
tp2259
a(I123
S'111             \t109             \t111             \t2000        \t12          \t130         \t0           \tOpen  \t;'
p2260
tp2261
a(I124
S'112             \t115             \t111             \t1160        \t12          \t130         \t0           \tOpen  \t;'
p2262
tp2263
a(I125
S'113             \t111             \t113             \t1680        \t12          \t130         \t0           \tOpen  \t;'
p2264
tp2265
a(I126
S'114             \t115             \t113             \t2000        \t8           \t130         \t0           \tOpen  \t;'
p2266
tp2267
a(I127
S'115             \t107             \t115             \t1950        \t8           \t130         \t0           \tOpen  \t;'
p2268
tp2269
a(I128
S'116             \t113             \t193             \t1660        \t12          \t130         \t0           \tOpen  \t;'
p2270
tp2271
a(I129
S'117             \t263             \t105             \t2725        \t12          \t130         \t0           \tOpen  \t;'
p2272
tp2273
a(I130
S'119             \t115             \t117             \t2180        \t12          \t130         \t0           \tOpen  \t;'
p2274
tp2275
a(I131
S'120             \t119             \t120             \t730         \t12          \t130         \t0           \tOpen  \t;'
p2276
tp2277
a(I132
S'121             \t120             \t117             \t1870        \t12          \t130         \t0           \tOpen  \t;'
p2278
tp2279
a(I133
S'122             \t121             \t120             \t2050        \t8           \t130         \t0           \tOpen  \t;'
p2280
tp2281
a(I134
S'123             \t121             \t119             \t2000        \t30          \t141         \t0           \tOpen  \t;'
p2282
tp2283
a(I135
S'125             \t123             \t121             \t1500        \t30          \t141         \t0           \tOpen  \t;'
p2284
tp2285
a(I136
S'129             \t121             \t125             \t930         \t24          \t130         \t0           \tOpen  \t;'
p2286
tp2287
a(I137
S'131             \t125             \t127             \t3240        \t24          \t130         \t0           \tOpen  \t;'
p2288
tp2289
a(I138
S'133             \t20              \t127             \t785         \t20          \t130         \t0           \tOpen  \t;'
p2290
tp2291
a(I139
S'135             \t127             \t129             \t900         \t24          \t130         \t0           \tOpen  \t;'
p2292
tp2293
a(I140
S'137             \t129             \t131             \t6480        \t16          \t130         \t0           \tOpen  \t;'
p2294
tp2295
a(I141
S'145             \t129             \t139             \t2750        \t8           \t130         \t0           \tOpen  \t;'
p2296
tp2297
a(I142
S'147             \t139             \t141             \t2050        \t8           \t130         \t0           \tOpen  \t;'
p2298
tp2299
a(I143
S'149             \t143             \t141             \t1400        \t8           \t130         \t0           \tOpen  \t;'
p2300
tp2301
a(I144
S'151             \t15              \t143             \t1650        \t8           \t130         \t0           \tOpen  \t;'
p2302
tp2303
a(I145
S'153             \t145             \t141             \t3510        \t12          \t130         \t0           \tOpen  \t;'
p2304
tp2305
a(I146
S'155             \t147             \t145             \t2200        \t12          \t130         \t0           \tOpen  \t;'
p2306
tp2307
a(I147
S'159             \t147             \t149             \t880         \t12          \t130         \t0           \tOpen  \t;'
p2308
tp2309
a(I148
S'161             \t149             \t151             \t1020        \t8           \t130         \t0           \tOpen  \t;'
p2310
tp2311
a(I149
S'163             \t151             \t153             \t1170        \t12          \t130         \t0           \tOpen  \t;'
p2312
tp2313
a(I150
S'169             \t125             \t153             \t4560        \t8           \t130         \t0           \tOpen  \t;'
p2314
tp2315
a(I151
S'171             \t119             \t151             \t3460        \t12          \t130         \t0           \tOpen  \t;'
p2316
tp2317
a(I152
S'173             \t119             \t157             \t2080        \t30          \t141         \t0           \tOpen  \t;'
p2318
tp2319
a(I153
S'175             \t157             \t159             \t2910        \t30          \t141         \t0           \tOpen  \t;'
p2320
tp2321
a(I154
S'177             \t159             \t161             \t2000        \t30          \t141         \t0           \tOpen  \t;'
p2322
tp2323
a(I155
S'179             \t161             \t163             \t430         \t30          \t141         \t0           \tOpen  \t;'
p2324
tp2325
a(I156
S'180             \t163             \t164             \t150         \t14          \t130         \t0           \tOpen  \t;'
p2326
tp2327
a(I157
S'181             \t164             \t166             \t490         \t14          \t130         \t0           \tOpen  \t;'
p2328
tp2329
a(I158
S'183             \t265             \t169             \t590         \t30          \t141         \t0           \tOpen  \t;'
p2330
tp2331
a(I159
S'185             \t167             \t169             \t60          \t8           \t130         \t0           \tOpen  \t;'
p2332
tp2333
a(I160
S'186             \t187             \t204             \t99.9        \t8           \t130         \t0           \tOpen  \t;'
p2334
tp2335
a(I161
S'187             \t169             \t171             \t1270        \t30          \t141         \t0           \tOpen  \t;'
p2336
tp2337
a(I162
S'189             \t171             \t173             \t50          \t30          \t141         \t0           \tOpen  \t;'
p2338
tp2339
a(I163
S'191             \t271             \t171             \t760         \t24          \t130         \t0           \tOpen  \t;'
p2340
tp2341
a(I164
S'193             \t35              \t181             \t30          \t24          \t130         \t0           \tOpen  \t;'
p2342
tp2343
a(I165
S'195             \t181             \t177             \t30          \t12          \t130         \t0           \tOpen  \t;'
p2344
tp2345
a(I166
S'197             \t177             \t179             \t30          \t12          \t130         \t0           \tOpen  \t;'
p2346
tp2347
a(I167
S'199             \t179             \t183             \t210         \t12          \t130         \t0           \tOpen  \t;'
p2348
tp2349
a(I168
S'201             \t40              \t179             \t1190        \t12          \t130         \t0           \tOpen  \t;'
p2350
tp2351
a(I169
S'202             \t185             \t184             \t99.9        \t8           \t130         \t0           \tOpen  \t;'
p2352
tp2353
a(I170
S'203             \t183             \t185             \t510         \t8           \t130         \t0           \tOpen  \t;'
p2354
tp2355
a(I171
S'204             \t184             \t205             \t4530.       \t12          \t130         \t0           \tOpen  \t;'
p2356
tp2357
a(I172
S'205             \t204             \t185             \t1325.       \t12          \t130         \t0           \tOpen  \t;'
p2358
tp2359
a(I173
S'207             \t189             \t183             \t1350        \t12          \t130         \t0           \tOpen  \t;'
p2360
tp2361
a(I174
S'209             \t189             \t187             \t500         \t8           \t130         \t0           \tOpen  \t;'
p2362
tp2363
a(I175
S'211             \t169             \t269             \t646         \t12          \t130         \t0           \tOpen  \t;'
p2364
tp2365
a(I176
S'213             \t191             \t187             \t2560        \t12          \t130         \t0           \tOpen  \t;'
p2366
tp2367
a(I177
S'215             \t267             \t189             \t1230        \t12          \t130         \t0           \tOpen  \t;'
p2368
tp2369
a(I178
S'217             \t191             \t193             \t520         \t12          \t130         \t0           \tOpen  \t;'
p2370
tp2371
a(I179
S'219             \t193             \t195             \t360         \t12          \t130         \t0           \tOpen  \t;'
p2372
tp2373
a(I180
S'221             \t161             \t195             \t2300        \t8           \t130         \t0           \tOpen  \t;'
p2374
tp2375
a(I181
S'223             \t197             \t191             \t1150        \t12          \t130         \t0           \tOpen  \t;'
p2376
tp2377
a(I182
S'225             \t111             \t197             \t2790        \t12          \t130         \t0           \tOpen  \t;'
p2378
tp2379
a(I183
S'229             \t173             \t199             \t4000        \t24          \t141         \t0           \tOpen  \t;'
p2380
tp2381
a(I184
S'231             \t199             \t201             \t630         \t24          \t141         \t0           \tOpen  \t;'
p2382
tp2383
a(I185
S'233             \t201             \t203             \t120         \t24          \t130         \t0           \tOpen  \t;'
p2384
tp2385
a(I186
S'235             \t199             \t273             \t725         \t12          \t130         \t0           \tOpen  \t;'
p2386
tp2387
a(I187
S'237             \t205             \t207             \t1200        \t12          \t130         \t0           \tOpen  \t;'
p2388
tp2389
a(I188
S'238             \t207             \t206             \t450         \t12          \t130         \t0           \tOpen  \t;'
p2390
tp2391
a(I189
S'239             \t275             \t207             \t1430        \t12          \t130         \t0           \tOpen  \t;'
p2392
tp2393
a(I190
S'240             \t206             \t208             \t510         \t12          \t130         \t0           \tOpen  \t;'
p2394
tp2395
a(I191
S'241             \t208             \t209             \t885         \t12          \t130         \t0           \tOpen  \t;'
p2396
tp2397
a(I192
S'243             \t209             \t211             \t1210        \t16          \t130         \t0           \tOpen  \t;'
p2398
tp2399
a(I193
S'245             \t211             \t213             \t990         \t16          \t130         \t0           \tOpen  \t;'
p2400
tp2401
a(I194
S'247             \t213             \t215             \t4285        \t16          \t130         \t0           \tOpen  \t;'
p2402
tp2403
a(I195
S'249             \t215             \t217             \t1660        \t16          \t130         \t0           \tOpen  \t;'
p2404
tp2405
a(I196
S'251             \t217             \t219             \t2050        \t14          \t130         \t0           \tOpen  \t;'
p2406
tp2407
a(I197
S'257             \t217             \t225             \t1560        \t12          \t130         \t0           \tOpen  \t;'
p2408
tp2409
a(I198
S'261             \t213             \t229             \t2200        \t8           \t130         \t0           \tOpen  \t;'
p2410
tp2411
a(I199
S'263             \t229             \t231             \t1960        \t12          \t130         \t0           \tOpen  \t;'
p2412
tp2413
a(I200
S'269             \t211             \t237             \t2080        \t12          \t130         \t0           \tOpen  \t;'
p2414
tp2415
a(I201
S'271             \t237             \t229             \t790         \t8           \t130         \t0           \tOpen  \t;'
p2416
tp2417
a(I202
S'273             \t237             \t239             \t510         \t12          \t130         \t0           \tOpen  \t;'
p2418
tp2419
a(I203
S'275             \t239             \t241             \t35          \t12          \t130         \t0           \tOpen  \t;'
p2420
tp2421
a(I204
S'277             \t241             \t243             \t2200        \t12          \t130         \t0           \tOpen  \t;'
p2422
tp2423
a(I205
S'281             \t241             \t247             \t445         \t10          \t130         \t0           \tOpen  \t;'
p2424
tp2425
a(I206
S'283             \t239             \t249             \t430         \t12          \t130         \t0           \tOpen  \t;'
p2426
tp2427
a(I207
S'285             \t247             \t249             \t10          \t12          \t130         \t0           \tOpen  \t;'
p2428
tp2429
a(I208
S'287             \t247             \t255             \t1390        \t10          \t130         \t0           \tOpen  \t;'
p2430
tp2431
a(I209
S'289             \t50              \t255             \t925         \t10          \t130         \t0           \tOpen  \t;'
p2432
tp2433
a(I210
S'291             \t255             \t253             \t1100        \t10          \t130         \t0           \tOpen  \t;'
p2434
tp2435
a(I211
S'293             \t255             \t251             \t1100        \t8           \t130         \t0           \tOpen  \t;'
p2436
tp2437
a(I212
S'295             \t249             \t251             \t1450        \t12          \t130         \t0           \tOpen  \t;'
p2438
tp2439
a(I213
S'297             \t120             \t257             \t645         \t8           \t130         \t0           \tOpen  \t;'
p2440
tp2441
a(I214
S'299             \t257             \t259             \t350         \t8           \t130         \t0           \tOpen  \t;'
p2442
tp2443
a(I215
S'301             \t259             \t263             \t1400        \t8           \t130         \t0           \tOpen  \t;'
p2444
tp2445
a(I216
S'303             \t257             \t261             \t1400        \t8           \t130         \t0           \tOpen  \t;'
p2446
tp2447
a(I217
S'305             \t117             \t261             \t645         \t12          \t130         \t0           \tOpen  \t;'
p2448
tp2449
a(I218
S'307             \t261             \t263             \t350         \t12          \t130         \t0           \tOpen  \t;'
p2450
tp2451
a(I219
S'309             \t265             \t267             \t1580        \t8           \t130         \t0           \tOpen  \t;'
p2452
tp2453
a(I220
S'311             \t193             \t267             \t1170        \t12          \t130         \t0           \tOpen  \t;'
p2454
tp2455
a(I221
S'313             \t269             \t189             \t646         \t12          \t130         \t0           \tOpen  \t;'
p2456
tp2457
a(I222
S'315             \t181             \t271             \t260         \t24          \t130         \t0           \tOpen  \t;'
p2458
tp2459
a(I223
S'317             \t273             \t275             \t2230        \t8           \t130         \t0           \tOpen  \t;'
p2460
tp2461
a(I224
S'319             \t273             \t205             \t645         \t12          \t130         \t0           \tOpen  \t;'
p2462
tp2463
a(I225
S'321             \t163             \t265             \t1200        \t30          \t141         \t0           \tOpen  \t;'
p2464
tp2465
a(I226
S'323             \t201             \t275             \t300         \t12          \t130         \t0           \tOpen  \t;'
p2466
tp2467
a(I227
S'325             \t269             \t271             \t1290        \t8           \t130         \t0           \tOpen  \t;'
p2468
tp2469
a(I228
S'329             \t61              \t123             \t45500       \t30          \t140         \t0           \tOpen  \t;'
p2470
tp2471
a(I229
S'330             \t60              \t601             \t1           \t30          \t140         \t0           \tClosed\t;'
p2472
tp2473
a(I230
S'333             \t601             \t61              \t1           \t30          \t140         \t0           \tOpen  \t;'
p2474
tp2475
asS'[EMITTERS]'
p2476
(lp2477
(I321
S';Junction        \tCoefficient'
p2478
tp2479
asS'[COORDINATES]'
p2480
(lp2481
(I380
S';Node            \tX-Coord         \tY-Coord'
p2482
tp2483
a(I381
S'10              \t9.00            \t27.85'
p2484
tp2485
a(I382
S'15              \t38.68           \t23.76'
p2486
tp2487
a(I383
S'20              \t29.44           \t26.91'
p2488
tp2489
a(I384
S'35              \t25.46           \t10.52'
p2490
tp2491
a(I385
S'40              \t27.02           \t9.81'
p2492
tp2493
a(I386
S'50              \t33.01           \t3.01'
p2494
tp2495
a(I387
S'60              \t23.90           \t29.94'
p2496
tp2497
a(I388
S'601             \t23.00           \t29.49'
p2498
tp2499
a(I389
S'61              \t23.71           \t29.03'
p2500
tp2501
a(I390
S'101             \t13.81           \t22.94'
p2502
tp2503
a(I391
S'103             \t12.96           \t21.31'
p2504
tp2505
a(I392
S'105             \t16.97           \t21.28'
p2506
tp2507
a(I393
S'107             \t18.45           \t20.46'
p2508
tp2509
a(I394
S'109             \t17.64           \t18.92'
p2510
tp2511
a(I395
S'111             \t20.21           \t17.53'
p2512
tp2513
a(I396
S'113             \t22.04           \t16.61'
p2514
tp2515
a(I397
S'115             \t20.98           \t19.18'
p2516
tp2517
a(I398
S'117             \t21.69           \t21.28'
p2518
tp2519
a(I399
S'119             \t23.70           \t22.76'
p2520
tp2521
a(I400
S'120             \t22.08           \t23.10'
p2522
tp2523
a(I401
S'121             \t23.54           \t25.50'
p2524
tp2525
a(I402
S'123             \t23.37           \t27.31'
p2526
tp2527
a(I403
S'125             \t24.59           \t25.64'
p2528
tp2529
a(I404
S'127             \t29.29           \t26.40'
p2530
tp2531
a(I405
S'129             \t30.32           \t26.39'
p2532
tp2533
a(I406
S'131             \t37.89           \t29.55'
p2534
tp2535
a(I407
S'139             \t33.28           \t24.54'
p2536
tp2537
a(I408
S'141             \t35.68           \t23.08'
p2538
tp2539
a(I409
S'143             \t37.47           \t21.97'
p2540
tp2541
a(I410
S'145             \t33.02           \t19.29'
p2542
tp2543
a(I411
S'147             \t30.24           \t20.38'
p2544
tp2545
a(I412
S'149             \t29.62           \t20.74'
p2546
tp2547
a(I413
S'151             \t28.29           \t21.39'
p2548
tp2549
a(I414
S'153             \t28.13           \t22.63'
p2550
tp2551
a(I415
S'157             \t24.85           \t20.16'
p2552
tp2553
a(I416
S'159             \t23.12           \t17.50'
p2554
tp2555
a(I417
S'161             \t25.10           \t15.28'
p2556
tp2557
a(I418
S'163             \t25.39           \t14.98'
p2558
tp2559
a(I419
S'164             \t25.98           \t15.14'
p2560
tp2561
a(I420
S'166             \t26.48           \t15.13'
p2562
tp2563
a(I421
S'167             \t25.88           \t12.98'
p2564
tp2565
a(I422
S'169             \t25.68           \t12.74'
p2566
tp2567
a(I423
S'171             \t26.65           \t11.80'
p2568
tp2569
a(I424
S'173             \t26.87           \t11.59'
p2570
tp2571
a(I425
S'177             \t25.71           \t10.57'
p2572
tp2573
a(I426
S'179             \t25.71           \t10.40'
p2574
tp2575
a(I427
S'181             \t25.72           \t10.74'
p2576
tp2577
a(I428
S'183             \t25.45           \t10.18'
p2578
tp2579
a(I429
S'184             \t25.15           \t9.52'
p2580
tp2581
a(I430
S'185             \t25.01           \t9.67'
p2582
tp2583
a(I431
S'187             \t23.64           \t11.04'
p2584
tp2585
a(I432
S'189             \t24.15           \t11.37'
p2586
tp2587
a(I433
S'191             \t22.10           \t14.07'
p2588
tp2589
a(I434
S'193             \t22.88           \t14.35'
p2590
tp2591
a(I435
S'195             \t23.18           \t14.72'
p2592
tp2593
a(I436
S'197             \t20.97           \t15.18'
p2594
tp2595
a(I437
S'199             \t29.42           \t8.44'
p2596
tp2597
a(I438
S'201             \t30.89           \t8.57'
p2598
tp2599
a(I439
S'203             \t31.14           \t8.89'
p2600
tp2601
a(I440
S'204             \t23.80           \t10.90'
p2602
tp2603
a(I441
S'205             \t29.20           \t6.46'
p2604
tp2605
a(I442
S'206             \t31.66           \t6.64'
p2606
tp2607
a(I443
S'207             \t31.00           \t6.61'
p2608
tp2609
a(I444
S'208             \t32.54           \t6.81'
p2610
tp2611
a(I445
S'209             \t33.76           \t6.59'
p2612
tp2613
a(I446
S'211             \t34.20           \t5.54'
p2614
tp2615
a(I447
S'213             \t35.26           \t6.16'
p2616
tp2617
a(I448
S'215             \t39.95           \t8.73'
p2618
tp2619
a(I449
S'217             \t42.11           \t8.67'
p2620
tp2621
a(I450
S'219             \t44.86           \t9.32'
p2622
tp2623
a(I451
S'225             \t43.53           \t7.38'
p2624
tp2625
a(I452
S'229             \t36.16           \t3.49'
p2626
tp2627
a(I453
S'231             \t38.38           \t2.54'
p2628
tp2629
a(I454
S'237             \t35.37           \t3.08'
p2630
tp2631
a(I455
S'239             \t35.76           \t2.31'
p2632
tp2633
a(I456
S'241             \t35.87           \t2.11'
p2634
tp2635
a(I457
S'243             \t37.04           \t0.00'
p2636
tp2637
a(I458
S'247             \t35.02           \t2.05'
p2638
tp2639
a(I459
S'249             \t35.02           \t1.81'
p2640
tp2641
a(I460
S'251             \t34.15           \t1.10'
p2642
tp2643
a(I461
S'253             \t32.17           \t1.88'
p2644
tp2645
a(I462
S'255             \t33.51           \t2.45'
p2646
tp2647
a(I463
S'257             \t21.17           \t23.32'
p2648
tp2649
a(I464
S'259             \t20.80           \t23.40'
p2650
tp2651
a(I465
S'261             \t20.79           \t21.45'
p2652
tp2653
a(I466
S'263             \t20.32           \t21.57'
p2654
tp2655
a(I467
S'265             \t25.39           \t13.60'
p2656
tp2657
a(I468
S'267             \t23.38           \t12.95'
p2658
tp2659
a(I469
S'269             \t25.03           \t12.14'
p2660
tp2661
a(I470
S'271             \t25.97           \t11.00'
p2662
tp2663
a(I471
S'273             \t29.16           \t7.38'
p2664
tp2665
a(I472
S'275             \t31.07           \t8.29'
p2666
tp2667
a(I473
S'River           \t24.15           \t31.06'
p2668
tp2669
a(I474
S'Lake            \t8.00            \t27.53'
p2670
tp2671
a(I475
S'1               \t27.46           \t9.84'
p2672
tp2673
a(I476
S'2               \t32.99           \t3.45'
p2674
tp2675
a(I477
S'3               \t29.41           \t27.27'
p2676
tp2677
asS'[JUNCTIONS]'
p2678
(lp2679
(I7
S';ID              \tElev        \tDemand      \tPattern'
p2680
tp2681
a(I8
S'10              \t147         \t0           \t                \t;'
p2682
tp2683
a(I9
S'15              \t32          \t1           \t3               \t;'
p2684
tp2685
a(I10
S'20              \t129         \t0           \t                \t;'
p2686
tp2687
a(I11
S'35              \t12.5        \t1           \t4               \t;'
p2688
tp2689
a(I12
S'40              \t131.9       \t0           \t                \t;'
p2690
tp2691
a(I13
S'50              \t116.5       \t0           \t                \t;'
p2692
tp2693
a(I14
S'60              \t0           \t0           \t                \t;'
p2694
tp2695
a(I15
S'601             \t0           \t0           \t                \t;'
p2696
tp2697
a(I16
S'61              \t0           \t0           \t                \t;'
p2698
tp2699
a(I17
S'101             \t42          \t189.95      \t                \t;'
p2700
tp2701
a(I18
S'103             \t43          \t133.2       \t                \t;'
p2702
tp2703
a(I19
S'105             \t28.5        \t135.37      \t                \t;'
p2704
tp2705
a(I20
S'107             \t22          \t54.64       \t                \t;'
p2706
tp2707
a(I21
S'109             \t20.3        \t231.4       \t                \t;'
p2708
tp2709
a(I22
S'111             \t10          \t141.94      \t                \t;'
p2710
tp2711
a(I23
S'113             \t2           \t20.01       \t                \t;'
p2712
tp2713
a(I24
S'115             \t14          \t52.1        \t                \t;'
p2714
tp2715
a(I25
S'117             \t13.6        \t117.71      \t                \t;'
p2716
tp2717
a(I26
S'119             \t2           \t176.13      \t                \t;'
p2718
tp2719
a(I27
S'120             \t0           \t0           \t                \t;'
p2720
tp2721
a(I28
S'121             \t-2          \t41.63       \t                \t;'
p2722
tp2723
a(I29
S'123             \t11          \t1           \t2               \t;'
p2724
tp2725
a(I30
S'125             \t11          \t45.6        \t                \t;'
p2726
tp2727
a(I31
S'127             \t56          \t17.66       \t                \t;'
p2728
tp2729
a(I32
S'129             \t51          \t0           \t                \t;'
p2730
tp2731
a(I33
S'131             \t6           \t42.75       \t                \t;'
p2732
tp2733
a(I34
S'139             \t31          \t5.89        \t                \t;'
p2734
tp2735
a(I35
S'141             \t4           \t9.85        \t                \t;'
p2736
tp2737
a(I36
S'143             \t-4.5        \t6.2         \t                \t;'
p2738
tp2739
a(I37
S'145             \t1           \t27.63       \t                \t;'
p2740
tp2741
a(I38
S'147             \t18.5        \t8.55        \t                \t;'
p2742
tp2743
a(I39
S'149             \t16          \t27.07       \t                \t;'
p2744
tp2745
a(I40
S'151             \t33.5        \t144.48      \t                \t;'
p2746
tp2747
a(I41
S'153             \t66.2        \t44.17       \t                \t;'
p2748
tp2749
a(I42
S'157             \t13.1        \t51.79       \t                \t;'
p2750
tp2751
a(I43
S'159             \t6           \t41.32       \t                \t;'
p2752
tp2753
a(I44
S'161             \t4           \t15.8        \t                \t;'
p2754
tp2755
a(I45
S'163             \t5           \t9.42        \t                \t;'
p2756
tp2757
a(I46
S'164             \t5           \t0           \t                \t;'
p2758
tp2759
a(I47
S'166             \t-2          \t2.6         \t                \t;'
p2760
tp2761
a(I48
S'167             \t-5          \t14.56       \t                \t;'
p2762
tp2763
a(I49
S'169             \t-5          \t0           \t                \t;'
p2764
tp2765
a(I50
S'171             \t-4          \t39.34       \t                \t;'
p2766
tp2767
a(I51
S'173             \t-4          \t0           \t                \t;'
p2768
tp2769
a(I52
S'177             \t8           \t58.17       \t                \t;'
p2770
tp2771
a(I53
S'179             \t8           \t0           \t                \t;'
p2772
tp2773
a(I54
S'181             \t8           \t0           \t                \t;'
p2774
tp2775
a(I55
S'183             \t11          \t0           \t                \t;'
p2776
tp2777
a(I56
S'184             \t16          \t0           \t                \t;'
p2778
tp2779
a(I57
S'185             \t16          \t25.65       \t                \t;'
p2780
tp2781
a(I58
S'187             \t12.5        \t0           \t                \t;'
p2782
tp2783
a(I59
S'189             \t4           \t107.92      \t                \t;'
p2784
tp2785
a(I60
S'191             \t25          \t81.9        \t                \t;'
p2786
tp2787
a(I61
S'193             \t18          \t71.31       \t                \t;'
p2788
tp2789
a(I62
S'195             \t15.5        \t0           \t                \t;'
p2790
tp2791
a(I63
S'197             \t23          \t17.04       \t                \t;'
p2792
tp2793
a(I64
S'199             \t-2          \t119.32      \t                \t;'
p2794
tp2795
a(I65
S'201             \t0.1         \t44.61       \t                \t;'
p2796
tp2797
a(I66
S'203             \t2           \t1           \t5               \t;'
p2798
tp2799
a(I67
S'204             \t21          \t0           \t                \t;'
p2800
tp2801
a(I68
S'205             \t21          \t65.36       \t                \t;'
p2802
tp2803
a(I69
S'206             \t1           \t0           \t                \t;'
p2804
tp2805
a(I70
S'207             \t9           \t69.39       \t                \t;'
p2806
tp2807
a(I71
S'208             \t16          \t0           \t                \t;'
p2808
tp2809
a(I72
S'209             \t-2          \t0.87        \t                \t;'
p2810
tp2811
a(I73
S'211             \t7           \t8.67        \t                \t;'
p2812
tp2813
a(I74
S'213             \t7           \t13.94       \t                \t;'
p2814
tp2815
a(I75
S'215             \t7           \t92.19       \t                \t;'
p2816
tp2817
a(I76
S'217             \t6           \t24.22       \t                \t;'
p2818
tp2819
a(I77
S'219             \t4           \t41.32       \t                \t;'
p2820
tp2821
a(I78
S'225             \t8           \t22.8        \t                \t;'
p2822
tp2823
a(I79
S'229             \t10.5        \t64.18       \t                \t;'
p2824
tp2825
a(I80
S'231             \t5           \t16.48       \t                \t;'
p2826
tp2827
a(I81
S'237             \t14          \t15.61       \t                \t;'
p2828
tp2829
a(I82
S'239             \t13          \t44.61       \t                \t;'
p2830
tp2831
a(I83
S'241             \t13          \t0           \t                \t;'
p2832
tp2833
a(I84
S'243             \t14          \t4.34        \t                \t;'
p2834
tp2835
a(I85
S'247             \t18          \t70.38       \t                \t;'
p2836
tp2837
a(I86
S'249             \t18          \t0           \t                \t;'
p2838
tp2839
a(I87
S'251             \t30          \t24.16       \t                \t;'
p2840
tp2841
a(I88
S'253             \t36          \t54.52       \t                \t;'
p2842
tp2843
a(I89
S'255             \t27          \t40.39       \t                \t;'
p2844
tp2845
a(I90
S'257             \t17          \t0           \t                \t;'
p2846
tp2847
a(I91
S'259             \t25          \t0           \t                \t;'
p2848
tp2849
a(I92
S'261             \t0           \t0           \t                \t;'
p2850
tp2851
a(I93
S'263             \t0           \t0           \t                \t;'
p2852
tp2853
a(I94
S'265             \t0           \t0           \t                \t;'
p2854
tp2855
a(I95
S'267             \t21          \t0           \t                \t;'
p2856
tp2857
a(I96
S'269             \t0           \t0           \t                \t;'
p2858
tp2859
a(I97
S'271             \t6           \t0           \t                \t;'
p2860
tp2861
a(I98
S'273             \t8           \t0           \t                \t;'
p2862
tp2863
a(I99
S'275             \t10          \t0           \t                \t;'
p2864
tp2865
asS'[VALVES]'
p2866
(lp2867
(I238
S';ID              \tNode1           \tNode2           \tDiameter    \tType\tSetting     \tMinorLoss'
p2868
tp2869
asS'[LABELS]'
p2870
(lp2871
(I483
S';X-Coord           Y-Coord          Label & Anchor Node'
p2872
tp2873
a(I484
S'8.00             29.42            "LAKE"'
p2874
tp2875
a(I485
S'25.00            31.10            "RIVER"'
p2876
tp2877
asS'[CURVES]'
p2878
(lp2879
(I278
S';ID              \tX-Value     \tY-Value'
p2880
tp2881
a(I279
S';PUMP: Pump Curve for Pump 10 (Lake Source)'
p2882
tp2883
a(I280
S'1               \t0           \t104.'
p2884
tp2885
a(I281
S'1               \t2000.       \t92.'
p2886
tp2887
a(I282
S'1               \t4000.       \t63.'
p2888
tp2889
a(I283
S';PUMP: Pump Curve for Pump 335 (River Source)'
p2890
tp2891
a(I284
S'2               \t0           \t200.'
p2892
tp2893
a(I285
S'2               \t8000.       \t138.'
p2894
tp2895
a(I286
S'2               \t14000.      \t86.'
p2896
tp2897
asS'[PATTERNS]'
p2898
(lp2899
(I250
S';ID              \tMultipliers'
p2900
tp2901
a(I251
S';General Default Demand Pattern'
p2902
tp2903
a(I252
S'1               \t1.34        \t1.94        \t1.46        \t1.44        \t.76         \t.92'
p2904
tp2905
a(I253
S'1               \t.85         \t1.07        \t.96         \t1.1         \t1.08        \t1.19'
p2906
tp2907
a(I254
S'1               \t1.16        \t1.08        \t.96         \t.83         \t.79         \t.74'
p2908
tp2909
a(I255
S'1               \t.64         \t.64         \t.85         \t.96         \t1.24        \t1.67'
p2910
tp2911
a(I256
S';Demand Pattern for Node 123'
p2912
tp2913
a(I257
S'2               \t0           \t0           \t0           \t0           \t0           \t1219'
p2914
tp2915
a(I258
S'2               \t0           \t0           \t0           \t1866        \t1836        \t1818'
p2916
tp2917
a(I259
S'2               \t1818        \t1822        \t1822        \t1817        \t1824        \t1816'
p2918
tp2919
a(I260
S'2               \t1833        \t1817        \t1830        \t1814        \t1840        \t1859'
p2920
tp2921
a(I261
S';Demand Pattern for Node 15'
p2922
tp2923
a(I262
S'3               \t620         \t620         \t620         \t620         \t620         \t360'
p2924
tp2925
a(I263
S'3               \t360         \t0           \t0           \t0           \t0           \t360'
p2926
tp2927
a(I264
S'3               \t360         \t360         \t360         \t360         \t0           \t0'
p2928
tp2929
a(I265
S'3               \t0           \t0           \t0           \t0           \t360         \t360'
p2930
tp2931
a(I266
S';Demand Pattern for Node 35'
p2932
tp2933
a(I267
S'4               \t1637        \t1706        \t1719        \t1719        \t1791        \t1819'
p2934
tp2935
a(I268
S'4               \t1777        \t1842        \t1815        \t1825        \t1856        \t1801'
p2936
tp2937
a(I269
S'4               \t1819        \t1733        \t1664        \t1620        \t1613        \t1620'
p2938
tp2939
a(I270
S'4               \t1616        \t1647        \t1627        \t1627        \t1671        \t1668'
p2940
tp2941
a(I271
S';Demand Pattern for Node 203'
p2942
tp2943
a(I272
S'5               \t4439        \t4531        \t4511        \t4582        \t4531        \t4582'
p2944
tp2945
a(I273
S'5               \t4572        \t4613        \t4643        \t4643        \t4592        \t4613'
p2946
tp2947
a(I274
S'5               \t4531        \t4521        \t4449        \t4439        \t4449        \t4460'
p2948
tp2949
a(I275
S'5               \t4439        \t4419        \t4368        \t4399        \t4470        \t4480'
p2950
tp2951
asS'[TAGS]'
p2952
(lp2953
sS'[TANKS]'
p2954
(lp2955
(I107
S';ID              \tElevation   \tInitLevel   \tMinLevel    \tMaxLevel    \tDiameter    \tMinVol      \tVolCurve'
p2956
tp2957
a(I108
S'1               \t131.9       \t13.1        \t.1          \t32.1        \t85          \t0           \t                \t;'
p2958
tp2959
a(I109
S'2               \t116.5       \t23.5        \t6.5         \t40.3        \t50          \t0           \t                \t;'
p2960
tp2961
a(I110
S'3               \t129.0       \t29.0        \t4.0         \t35.5        \t164         \t0           \t                \t;'
p2962
tp2963
asS'[REPORT]'
p2964
(lp2965
(I357
S'Status             \tYes'
p2966
tp2967
a(I358
S'Summary            \tNo'
p2968
tp2969
a(I359
S'Page               \t0'
p2970
tp2971
asS'[MIXING]'
p2972
(lp2973
(I343
S';Tank            \tModel'
p2974
tp2975
asS'[DEMANDS]'
p2976
(lp2977
(I243
S';Junction        \tDemand      \tPattern         \tCategory'
p2978
tp2979
asS'[OPTIONS]'
p2980
(lp2981
(I362
S'Units              \tGPM'
p2982
tp2983
a(I363
S'Headloss           \tH-W'
p2984
tp2985
a(I364
S'Specific Gravity   \t1.0'
p2986
tp2987
a(I365
S'Viscosity          \t1.0'
p2988
tp2989
a(I366
S'Trials             \t40'
p2990
tp2991
a(I367
S'Accuracy           \t0.001'
p2992
tp2993
a(I368
S'CHECKFREQ          \t2'
p2994
tp2995
a(I369
S'MAXCHECK           \t10'
p2996
tp2997
a(I370
S'DAMPLIMIT          \t0'
p2998
tp2999
a(I371
S'Unbalanced         \tContinue 10'
p3000
tp3001
a(I372
S'Pattern            \t1'
p3002
tp3003
a(I373
S'Demand Multiplier  \t1.0'
p3004
tp3005
a(I374
S'Emitter Exponent   \t0.5'
p3006
tp3007
a(I375
S'Quality            \tChemical'
p3008
tp3009
a(I376
S'Diffusivity        \t1.0'
p3010
tp3011
a(I377
S'Tolerance          \t0.01'
p3012
tp3013
asS'[REACTIONS]'
p3014
(lp3015
(I330
S';Type     \tPipe/Tank       \tCoefficient'
p3016
tp3017
a(I334
S'Order Bulk            \t0'
p3018
tp3019
a(I335
S'Order Tank            \t0'
p3020
tp3021
a(I336
S'Order Wall            \t0'
p3022
tp3023
a(I337
S'Global Bulk           \t0.0'
p3024
tp3025
a(I338
S'Global Wall           \t0.0'
p3026
tp3027
a(I339
S'Limiting Potential    \t0.0'
p3028
tp3029
a(I340
S'Roughness Correlation \t0.0'
p3030
tp3031
asS'[PUMPS]'
p3032
(lp3033
(I233
S';ID              \tNode1           \tNode2           \tParameters'
p3034
tp3035
a(I234
S'10              \tLake            \t10              \tHEAD 1\t;'
p3036
tp3037
a(I235
S'335             \t60              \t61              \tHEAD 2\t;'
p3038
tp3039
asS'[RULES]'
p3040
(lp3041
sS'[TITLE]'
p3042
(lp3043
(I2
S'EPANET Example Network 3, updated to include longer duration'
p3044
tp3045
a(I3
S'Example showing how the percent of Lake water in a dual-source'
p3046
tp3047
a(I4
S'system changes over time.'
p3048
tp3049
asS'[SOURCES]'
p3050
(lp3051
(I327
S';Node            \tType        \tQuality     \tPattern'
p3052
tp3053
asS'[TIMES]'
p3054
(lp3055
(I346
S'Duration           \t168:00'
p3056
tp3057
a(I347
S'Hydraulic Timestep \t0:15'
p3058
tp3059
a(I348
S'Quality Timestep   \t0:15'
p3060
tp3061
a(I349
S'Pattern Timestep   \t1:00'
p3062
tp3063
a(I350
S'Pattern Start      \t0:00'
p3064
tp3065
a(I351
S'Report Timestep    \t0:15'
p3066
tp3067
a(I352
S'Report Start       \t0:00'
p3068
tp3069
a(I353
S'Start ClockTime    \t12 am'
p3070
tp3071
a(I354
S'Statistic          \tNone'
p3072
tp3073
asS'[BACKDROP]'
p3074
(lp3075
(I488
S'DIMENSIONS     \t6.16            \t-1.55           \t46.70           \t32.61'
p3076
tp3077
a(I489
S'UNITS          \tNone'
p3078
tp3079
a(I490
S'FILE'
p3080
tp3081
a(I491
S'OFFSET         \t0.00            \t0.00'
p3082
tp3083
asS'[STATUS]'
p3084
(lp3085
(I246
S';ID              \tStatus/Setting'
p3086
tp3087
a(I247
S'10              \tClosed'
p3088
tp3089
asS'[QUALITY]'
p3090
(lp3091
(I324
S';Node            \tInitQual'
p3092
tp3093
asS'[RESERVOIRS]'
p3094
(lp3095
(I102
S';ID              \tHead        \tPattern'
p3096
tp3097
a(I103
S'River           \t220.0       \t                \t;'
p3098
tp3099
a(I104
S'Lake            \t167.0       \t                \t;'
p3100
tp3101
asS'[CONTROLS]'
p3102
(lp3103
(I289
S';Lake source operates only part of the day'
p3104
tp3105
a(I290
S'Link 10 OPEN AT TIME 1'
p3106
tp3107
a(I291
S'Link 10 CLOSED AT TIME 15'
p3108
tp3109
a(I292
S'Link 10 OPEN AT TIME 25'
p3110
tp3111
a(I293
S'Link 10 CLOSED AT TIME 39'
p3112
tp3113
a(I294
S'Link 10 OPEN AT TIME 49'
p3114
tp3115
a(I295
S'Link 10 CLOSED AT TIME 63'
p3116
tp3117
a(I296
S'Link 10 OPEN AT TIME 73'
p3118
tp3119
a(I297
S'Link 10 CLOSED AT TIME 87'
p3120
tp3121
a(I298
S'Link 10 OPEN AT TIME 97'
p3122
tp3123
a(I299
S'Link 10 CLOSED AT TIME 111'
p3124
tp3125
a(I300
S'Link 10 OPEN AT TIME 121'
p3126
tp3127
a(I301
S'Link 10 CLOSED AT TIME 135'
p3128
tp3129
a(I302
S'Link 10 OPEN AT TIME 145'
p3130
tp3131
a(I303
S'Link 10 CLOSED AT TIME 159'
p3132
tp3133
a(I305
S';Pump 335 controlled by level in Tank 1'
p3134
tp3135
a(I306
S';When pump is closed, bypass pipe is opened'
p3136
tp3137
a(I307
S'Link 335 OPEN IF Node 1 BELOW 17.1'
p3138
tp3139
a(I308
S'Link 335 CLOSED IF Node 1 ABOVE 19.1'
p3140
tp3141
a(I309
S'Link 330 CLOSED IF Node 1 BELOW 17.1'
p3142
tp3143
a(I310
S'Link 330 OPEN IF Node 1 ABOVE 19.1'
p3144
tp3145
asS'[ENERGY]'
p3146
(lp3147
(I316
S'Global Efficiency  \t75'
p3148
tp3149
a(I317
S'Global Price       \t0.0'
p3150
tp3151
a(I318
S'Demand Charge      \t0.0'
p3152
tp3153
asS'[VERTICES]'
p3154
(lp3155
(I480
S';Link            \tX-Coord         \tY-Coord'
p3156
tp3157
assS'flow_units'
p3158
cwntr.epanet.util
FlowUnits
p3159
(I1
tp3160
Rp3161
sS'mass_units'
p3162
cwntr.epanet.util
MassUnits
p3163
((I1
F1e-06
tp3164
tp3165
Rp3166
sbsS'options'
p3167
g0
(cwntr.network.WaterNetworkModel
WaterNetworkOptions
p3168
g2
Ntp3169
Rp3170
(dp3171
S'emitter_exponent'
p3172
F0.5
sS'pattern_timestep'
p3173
I3600
sg268
F0.0
sS'report_start'
p3174
I0
sS'wall_rxn_order'
p3175
I0
sS'quality_timestep'
p3176
I900
sS'statistic'
p3177
S'NONE'
p3178
sS'duration'
p3179
I172800
sg643
F0.0
sS'headloss'
p3180
S'H-W'
p3181
sS'pattern'
p3182
g542
sS'diffusivity'
p3183
F1.0
sS'hydraulics_filename'
p3184
NsS'units'
p3185
S'GPM'
p3186
sS'checkfreq'
p3187
I2
sS'tolerance'
p3188
F0.01
sS'accuracy'
p3189
F0.001
sS'map'
p3190
NsS'roughness_correlation'
p3191
F0.0
sS'report_timestep'
p3192
I1800
sS'hydraulic_timestep'
p3193
I1800
sS'tank_rxn_order'
p3194
I0
sS'quality_option'
p3195
S'CHEMICAL'
p3196
sS'viscosity'
p3197
F1.0
sS'trials'
p3198
I40
sS'unbalanced_option'
p3199
S'CONTINUE'
p3200
sS'bulk_rxn_order'
p3201
I0
sS'demand_multiplier'
p3202
F1.0
sS'limiting_potential'
p3203
F0.0
sS'unbalanced_value'
p3204
I10
sS'rule_timestep'
p3205
F360.0
sS'hydraulics_option'
p3206
NsS'quality_value'
p3207
S'mg/L'
p3208
sS'specific_gravity'
p3209
F1.0
sS'pattern_start'
p3210
I0
sS'start_clocktime'
p3211
I0
sbsb.